(lp0
F7.206549313664436
aF-4.3
acnumpy.core.multiarray
scalar
p1
(cnumpy
dtype
p2
(S'f8'
p3
I0
I1
tp4
Rp5
(I3
S'<'
p6
NNNI-1
I-1
I0
tp7
bS'tS??aI\x16@'
p8
tp9
Rp10
aF-4.4
aF6.554267606139183
aF-3.6
ag1
(g5
S'\xbe\x10#Zu\xcc\x15@'
p11
tp12
Rp13
aF-6.900000000000002
ag1
(g5
S'\x98\x03\xfb\xb7+n\x1b@'
p14
tp15
Rp16
ag1
(g5
S'\x12\xa9G\x07\x9e\x8e\x18@'
p17
tp18
Rp19
aF-5.700000000000001
ag1
(g5
S'^\xf5\xcb\xfa\x80\x95\x1e@'
p20
tp21
Rp22
aF5.161485909670589
aF-5.8999999999999995
aF-10.699999999999996
ag1
(g5
S'\xca\x9f \x80;\x0b\x15@'
p23
tp24
Rp25
aF-6.000000000000002
aF-3.5
ag1
(g5
S'\xce\xb0\xed\xc0e\xa5\x1d@'
p26
tp27
Rp28
ag1
(g5
S'\xf4\xbb\x1cd\x04\x0c\x1b@'
p29
tp30
Rp31
aF-3.8
aF-3.5
aF-5.500000000000001
aF-4.800000000000001
aF-4.0
ag1
(g5
S'\xb7\x80\xc3\xb1\xec\xe6\x1e@'
p32
tp33
Rp34
aF9.064757388830184
aF-4.8
aF-4.6000000000000005
ag1
(g5
S'\x00\xba\xc7\x8aV[\x1d@'
p35
tp36
Rp37
aF8.123316824436188
aF-4.2
aF-7.000000000000002
ag1
(g5
S'm\xad\xfc\xbd\xcaB\x1d@'
p38
tp39
Rp40
aF-3.3
aF8.22039488106966
aF8.003393438458442
aF7.810784265398979
aF-5.9
aF-7.800000000000001
aF-3.9
aF-4.1
aF-6.600000000000001
aF-3.5
ag1
(g5
S'\xe6\xb4\xea\x17N\x99\x19@'
p41
tp42
Rp43
aF-4.3
aF-4.5
aF-6.500000000000002
aF8.541589814424515
aF-3.7
aF-5.600000000000001
ag1
(g5
S'\x13\xa9\xbdY\x88l\x1d@'
p44
tp45
Rp46
aF-5.0
aF-6.400000000000001
aF-5.900000000000001
aF-4.0
aF-4.2
aF-4.2
aF-4.800000000000001
aF-3.6
aI0
aF-3.9000000000000004
aF-5.0
aF-3.2
aF-5.800000000000001
aF6.096457815170288
aF-5.0
aF-4.300000000000001
aF9.484828604757785
aF-3.5
aF-4.0
aF-4.200000000000002
aF-4.7
aF7.125497883558273
ag1
(g5
S'6Z]h\x06\x80\x1d@'
p47
tp48
Rp49
ag1
(g5
S'K\x19\xd7\x83\xe6>\x19@'
p50
tp51
Rp52
aF-4.8
aF-4.2
aF6.528176814317702
aF7.737927132844925
aF-3.6
aF-3.6
ag1
(g5
S'&\x05\x9ct\xf9\xeb\x1c@'
p53
tp54
Rp55
aF8.430932745337486
aF-3.5
aF-4.6
aF-3.6
aF-4.4
aF-3.7
aF-3.6
ag1
(g5
S'{8\xa6k\xda \x1d@'
p56
tp57
Rp58
aF8.943510276079177
aF8.383070474863052
ag1
(g5
S'\xbeJ\xbe&\xd1\xec\x1b@'
p59
tp60
Rp61
aF-3.2
aF-4.5
aF-6.900000000000002
aF8.14120934009552
aF-3.6
aF-3.8
aF-4.2
ag1
(g5
S'R@\xe0Y\x89Y\x1f@'
p62
tp63
Rp64
aF8.215596157312394
aF-3.5
aF-4.2
aF-3.4
aF-3.9
aF-4.7
ag1
(g5
S'\xaf\x107W\xaf\x9e\x1c@'
p65
tp66
Rp67
aF-3.3
aF-3.8
aF-4.1
aF-4.4
aF-3.6
aF-4.3
aF-3.6
aF8.665516796708108
aF-5.0
aF8.245916446298361
aF-3.8
aF-3.4
ag1
(g5
S'\xcdR/\xad\xb5\xb8\x1d@'
p68
tp69
Rp70
aF-4.5
aF-7.100000000000001
aF-4.1
aF-5.4
aF9.081570699810982
aF4.592495942115783
ag1
(g5
S'\xee\xe5Cr\x05\x8f\x13@'
p71
tp72
Rp73
aF-3.5
ag1
(g5
S'\xe4\x88\xa5q\xa1\x8d\x1f@'
p74
tp75
Rp76
aI-3
aI-3
aF-4.6000000000000005
aF-3.7
aF-4.6000000000000005
aF-4.6
aF-4.2
aF6.354851660877465
aF-3.5
aF-3.5
aF7.707473939657211
aF-4.4
aF-4.1
aF-3.9
aF-6.000000000000002
aF-3.9
aF-4.000000000000003
aF-3.7
aF-3.8
aF-4.7
aF-4.6000000000000005
aF-4.7
ag1
(g5
S'\x97\x87OV\xbe\x1d @'
p77
tp78
Rp79
aF-3.5
aF-4.0
aF6.443198549747466
aF-4.0
aF-3.5
aF7.857816246151923
aI0
aF-4.7
aF-3.6
aF-4.3
ag1
(g5
S'\xb5x\x1f\x8b#\x87\x1c@'
p80
tp81
Rp82
aF-4.800000000000001
aF-3.5000000000000018
aF-4.1
aF-5.200000000000001
ag1
(g5
S'\x1e@\xc8\xfe\xb1\xb8\x1e@'
p83
tp84
Rp85
aF8.723704677820205
aF-4.800000000000001
aF-3.9
aF-4.2
aF6.632588255405425
aF-4.1
aF-3.9
aF6.802875027060509
aF-3.9
aF-4.800000000000001
ag1
(g5
S'nE\x88\xdeH\xb7\x1e@'
p86
tp87
Rp88
aF-3.3
aF-3.2
aF-4.4
aF7.486324487719684
aF-3.4
aF-4.3
aF-4.3
aF-3.9
aF-3.4
aF-4.5
ag1
(g5
S'\xb0\xf3\x9c\x14\xd5\x19\x1e@'
p89
tp90
Rp91
ag1
(g5
S'\x05\xff\xd3\xec\x92)!@'
p92
tp93
Rp94
aF-4.800000000000001
ag1
(g5
S'\xc2\xf0?1\xceH @'
p95
tp96
Rp97
aF-3.9
aF-3.8
aF7.979079374670983
aF-3.4
aF-3.5
aF-3.9
aF-4.2
aF-3.7000000000000015
ag1
(g5
S'S\xf7W\xad\t\x08 @'
p98
tp99
Rp100
aF9.208344197273254
aF-3.7
aF-4.300000000000002
aF-3.1
aF7.288511630892753
aF-3.9
aF-5.300000000000001
aF8.80560423731804
ag1
(g5
S'\xb0\x9d%7\x0f\x8b\x1a@'
p101
tp102
Rp103
aF7.127125152945517
ag1
(g5
S'\x01\xaa\xd6\x82{\x82 @'
p104
tp105
Rp106
aI-3
aF-3.2
aF-4.3
aF-3.8
aF-4.2
aF9.008322554826737
aF-3.4
aF-5.0
aF-4.000000000000003
aF-5.2
aF-5.0
aF-4.9
aF-3.5
aI-3
ag1
(g5
S'\x18\xa2\x12"\xb3\x9a @'
p107
tp108
Rp109
aF-4.4
aF-5.300000000000001
aF-4.0
aF-6.700000000000002
aF-3.4
aF-4.2
aF-4.9
aF-3.6
aI-3
aF-3.7
aF8.787510105129332
aF7.952376732230186
aF-3.8
aF-4.200000000000003
aF-3.4
aF-3.5
aI-3
aF-3.4
aF-6.200000000000001
aF7.1464809618890275
aF-5.300000000000001
aF-4.200000000000002
aF-3.3
aF-3.8
aI-3
aI-3
aF-5.4
ag1
(g5
S'?\x99\xaeT\x9cl @'
p110
tp111
Rp112
ag1
(g5
S'\xbd\x83\xcem\x1d\x1c\x1c@'
p113
tp114
Rp115
aF7.284593045711517
aI0
ag1
(g5
S'\xd8\xf6\xff\x1b\xa7\xad\x1b@'
p116
tp117
Rp118
aF-3.4
aF-3.4
ag1
(g5
S'@\x8a\xd9Ol\xf4\x1c@'
p119
tp120
Rp121
aF-4.100000000000001
aF-3.4
aF-4.4
aF-4.1
aF-4.1
aF-4.2
ag1
(g5
S'\xd8\x80*\x8e:\x17\x1f@'
p122
tp123
Rp124
aF8.284372061491013
aF7.732231730222702
aF8.122471722960473
aF-3.9
aF-3.7
aF-4.1
aF-7.100000000000001
aF-1.6000000000000005
aF-3.5
ag1
(g5
S'j\xb8\xa9\xdct\x13!@'
p125
tp126
Rp127
aF-4.400000000000001
aF6.45312914252281
aF8.799405652284623
aF-4.6
aF9.20770534425974
aF-3.8
aF-4.4
aF-4.800000000000001
aF-3.4
aF-1.0999999999999999
aF-3.1
ag1
(g5
S'\x84\x13\x08\xa9\xde\xfa\x1b@'
p128
tp129
Rp130
aF6.400923621654511
aF-3.7
aF-3.8
aF-1.4
ag1
(g5
S'\xb1\xe7\x18\xa0z% @'
p131
tp132
Rp133
aF-4.3
ag1
(g5
S'\xda\xa4r\x0b\xee\xbb\x1f@'
p134
tp135
Rp136
aI-3
aF-3.1
ag1
(g5
S'\xc0\x13%\xf0`(\x1c@'
p137
tp138
Rp139
aF-3.7
aF-3.9
aF-4.1
aF8.383962482213974
aF7.59329683035612
ag1
(g5
S'\xee\xa0b\x9a\xaa^\x1d@'
p140
tp141
Rp142
aF-0.9999999999999999
aF8.02790667116642
aF-3.7
aF-1.4
aF-3.5
aF-1.2000000000000002
aF-3.3
aF-3.3
aF-4.5
aF-3.8
aF-4.200000000000001
aF-4.2
aF-4.300000000000001
aF-3.9
ag1
(g5
S'\xefj8g-\xda @'
p143
tp144
Rp145
aF-6.100000000000001
aF-4.4
aF-4.7
aF-5.4
aF-1.0
aF7.866991686820984
aF-1.2
ag1
(g5
S"\xa3R\xd5\xeb\xe8\xf3'@"
p146
tp147
Rp148
aF-3.7
aF-3.6
aF-1.4
aF8.956111165881158
aF-3.4
aF-1.0999999999999999
aF-3.5
aF-1.3
aF-3.2
ag1
(g5
S',\xe3g\x04\t$\x18@'
p149
tp150
Rp151
aF-4.000000000000002
aF-3.5
aF-3.3
aF-3.2
aF-1.1
aF-3.8
aF-5.4
aF7.3228806972503655
aF6.131911382079123
aF-5.4
aF-3.9
aF-1.4000000000000004
aF-3.8
aF-1.0
aF-1.0999999999999999
ag1
(g5
S'\x11\xd2\xd7u\xc5\x05\x1e@'
p152
tp153
Rp154
aF-3.6
aI0
aF-5.600000000000001
aF-4.7
aF5.334844160079956
aF-3.7
aF-3.6
ag1
(g5
S'Cl\x07I\x0fp\x1d@'
p155
tp156
Rp157
aF-3.6
aF-1.2
aF-4.1
aF-4.600000000000001
aF-3.7
aF-4.2
aF-3.4
aF-1.2999999999999998
aF-3.3
aF-3.7
aF-3.8
aF-3.9
aF-4.0
aI-3
ag1
(g5
S"\x95\x8c\x90\x88'\x8f\x1c@"
p158
tp159
Rp160
aF-3.6
aF8.54237841963768
aF-4.4
aF-4.0
aF-4.300000000000001
aF-1.2000000000000002
aF-3.9
aF-4.000000000000002
aF-3.7
aF-4.0
aF-3.2
aF-5.4
aF-0.8999999999999999
aF-4.1
ag1
(g5
S'LY\xef\xf3\xb8\x90\x1d@'
p161
tp162
Rp163
aF-4.1
aF8.505250586569309
aF-1.3000000000000003
aF-4.4
aF6.637434604763984
aF-4.2
aF-3.7
ag1
(g5
S'\xb3\x0c\xd6\xe4}\xf6\x1e@'
p164
tp165
Rp166
aF-3.6
aF8.726074603945017
aF-3.7
aF-3.6
aF7.823928955197334
aF-1.2999999999999998
aF-4.4
aF-6.400000000000002
aF-3.5
ag1
(g5
S'\xcf\xc8\x02\xe2\xc1\x10!@'
p167
tp168
Rp169
aF-0.9999999999999999
aF-3.9
aF-3.3
aF-1.3
aF6.058789708465335
aF-3.9
aF7.820430108904839
aF-3.9
aF-4.0
ag1
(g5
S'\x96\x80\xb5\x0f\x99\x0f\x1e@'
p170
tp171
Rp172
aF-3.7
aF-0.8999999999999999
aF-1.1
aF-3.4
aF5.579443533718585
aF7.5930858218576756
aF-1.1
aF6.443465876579284
aF-3.6
aF-3.2
aF-1.2
aF-4.4
aF7.03000476360321
aF-1.0999999999999999
ag1
(g5
S'\x88\x89\x1a\x9d\xc9\xc1\x17@'
p173
tp174
Rp175
ag1
(g5
S'\xbbF\xe1]V\x99\x19@'
p176
tp177
Rp178
aF-1.7000000000000002
aF-3.3
aF-3.7
aF-4.9
ag1
(g5
S'\xc1\x9f\x8cQ\x06m\x1d@'
p179
tp180
Rp181
aF-4.6
aF-3.8
aF8.681614777445793
aF-3.4
aF-3.6
aF8.87870794031769
ag1
(g5
S'\xbe\x98\xc4\xd7C\x9a\x1f@'
p182
tp183
Rp184
aF8.90475353449583
aF-4.100000000000001
aF-5.600000000000001
aF7.961762094497681
ag1
(g5
S'$\xe5\xfd\x14Y\xb3\x1a@'
p185
tp186
Rp187
aF-4.5
aF-4.0
aI0
aF-4.4
aF-5.700000000000001
aF6.470753127336501
aF7.7701092749834055
aF-3.6
aF-3.8
ag1
(g5
S'\xf0F\x16\xd3\x82\x89\x1f@'
p188
tp189
Rp190
aF-3.700000000000002
aF-5.600000000000001
aF-3.3
aF7.315793299674988
aF-4.7
aF-4.1
aF8.39986380636692
aF7.652926063910126
aF8.809836812317371
aF7.157816298119723
aF-3.7
aF-1.3
aF-5.600000000000001
aF-3.3
aF6.9925827145576465
aF-1.0000000000000002
aF-4.4
aF7.92083350121975
aF-4.2
aF-3.200000000000001
ag1
(g5
S'\xda\rf\x9e\x1d&\x1c@'
p191
tp192
Rp193
aF5.3599689647555335
ag1
(g5
S'\xf6\x12\xa4\xf8\xd1`\x1c@'
p194
tp195
Rp196
aF-3.4
aF-3.6
aF-3.7
aF-6.8000000000000025
aF-4.3
aF-4.5
aI-3
aF-5.300000000000001
aF-1.6
aF-0.9
aI-3
aF-4.0
ag1
(g5
S'\x89\xbe\xb3\xf1\xb3\xcb\x1c@'
p197
tp198
Rp199
aF-3.8
aF-4.300000000000001
aF-7.100000000000002
aF-4.0
aF-4.4
ag1
(g5
S'\xf1\x17\xc1\xa7\xa4g @'
p200
tp201
Rp202
aF7.144686944037675
aF-4.2
aF-4.0
aF-3.3
aF8.03572878241539
ag1
(g5
S'\x80xoV\xdcb\x1a@'
p203
tp204
Rp205
aF-4.5
aF-6.100000000000001
aF-4.3
aF-7.100000000000001
aF7.694844854343682
aF-3.9
aF8.081157432496548
aF-4.2
aF-3.5
aF-3.4
aF8.167160251736641
aF-3.8
aF-0.7999999999999999
aF6.122469982877371
aF-4.0
aF8.98371819080785
aF6.4439478576183316
aF-0.9999999999999999
aF-4.0
aF9.00302973985672
aF-4.4
aF-4.2
aF-1.0999999999999999
ag1
(g5
S'V?\xdf\x9fx[ @'
p206
tp207
Rp208
aF8.914728900790214
aF7.248372830450535
ag1
(g5
S'\xbb\x06@H\x99\x0f\x1f@'
p209
tp210
Rp211
aF8.83642410337925
aI-3
aF-5.1
aF-1.3
aF8.245624500513077
aF-1.4
aF-3.7
aF-4.500000000000001
aF5.541711328923701
ag1
(g5
S'\x86f\xc4\xb9\xbb\xc4\x1a@'
p212
tp213
Rp214
aF-3.6
aF6.52515777349472
aF-3.8
aF7.67506110072136
aF8.784596705436707
aF8.247915309667587
aF6.195228588581085
aI0
aF8.98522533774376
aF-3.2
aF8.857413399964571
ag1
(g5
S'\xbd]\xf8\xe0\xb0\xde\x18@'
p215
tp216
Rp217
aF-5.6000000000000005
aF-1.0999999999999999
aF-4.6
aF-4.3
aF-1.6
aF23.92603366076946
aF-1.4
ag1
(g5
S'29\x88\xa5\xc1:\x1b@'
p218
tp219
Rp220
aF7.815431922674179
aF-0.9999999999999999
ag1
(g5
S'\x16\x07\x942\x1fw @'
p221
tp222
Rp223
aF6.6397228285670264
aF-1.2000000000000002
aF-4.1
aF-4.0
aF6.66683635469526
aF-3.6
aF-4.200000000000001
aF8.847538389265537
aF-3.6
ag1
(g5
S'm\xd2-\xfd\xb4\x97\x19@'
p224
tp225
Rp226
aF-5.4
aF-0.9999999999999999
aF8.338247933983803
aF8.695082746446133
aF-3.6
ag1
(g5
S')|\xf1\x864\xe9\x1a@'
p227
tp228
Rp229
aF-3.8
aF7.96202889084816
aF7.835907928645611
aF-3.3
aF-6.900000000000002
aF-3.6
aF-3.5
ag1
(g5
S'&qB]\x8c\x11\x1b@'
p230
tp231
Rp232
aF6.313782788813112
a.