(lp0
F-4.4
aF-4.4
aF-3.7
aF-4.1
acnumpy.core.multiarray
scalar
p1
(cnumpy
dtype
p2
(S'f8'
p3
I0
I1
tp4
Rp5
(I3
S'<'
p6
NNNI-1
I-1
I0
tp7
bS'\xb3\xe8V\xf6;\x1c @'
p8
tp9
Rp10
aF-4.0
aF-3.6
aF-4.6000000000000005
ag1
(g5
S'\xe6\xba\xb2!\xca^\x1a@'
p11
tp12
Rp13
aF-3.5
aF-6.700000000000002
aF-5.1000000000000005
aF8.153620041161776
aF-4.9
aF-5.500000000000001
aF-3.9
aF-5.000000000000001
aF-6.900000000000001
aF-3.4
aF-4.6000000000000005
ag1
(g5
S'D\n\x8c\xfe*\xc9\x18@'
p14
tp15
Rp16
aF-3.9
aF-3.3
aF-3.6
aF-4.5
ag1
(g5
S'\x14&\xe5\xe9a\x7f\xf7?'
p17
tp18
Rp19
aF-3.6
aF-3.9
ag1
(g5
S'\xc3\x16\xbaU\x12\x02\x15@'
p20
tp21
Rp22
aF-4.5
ag1
(g5
S'\x9b\x0b\xca\x0c\x15\x0b!@'
p23
tp24
Rp25
aF-3.4
aF-4.7
aF-6.100000000000001
aF7.299491583221242
aF4.1142813108861445
aF-4.8999999999999995
aF-3.6
aF-8.799999999999997
aF-3.5
aF-6.199999999999999
aF-3.5
aF7.828366401791572
ag1
(g5
S'x\xbd\xab\xbe\xdb\x0c\x18@'
p26
tp27
Rp28
aF-3.8
aF7.512575028836727
ag1
(g5
S'3\xfe\x8e\xa8\xc9\xa6\x19@'
p29
tp30
Rp31
aF-4.9
aF7.3585743948817255
aI-3
aF7.563963121175766
aF-3.6
aF-4.0
aF-7.700000000000002
aF-3.9
ag1
(g5
S'O\xc6=Tn\xde\x18@'
p32
tp33
Rp34
aF-5.800000000000001
aF-4.0
ag1
(g5
S'\xd6\xcb@\x8f\xc7\xd6\x17@'
p35
tp36
Rp37
aF-4.9
aI0
aF-3.7
aF7.348355406522749
aF-3.6
aF8.118550562858582
aF-4.499999999999999
aF-5.500000000000001
aF-3.2
aF-3.6
aF-6.2
aF-7.900000000000002
aF-4.700000000000002
aF-3.4
aF-4.6
aF8.18925358057022
aF-4.2
aF8.3887238830328
aF-3.4
ag1
(g5
S'\xeeu\x0c\x14>\xe1\x1c@'
p38
tp39
Rp40
aF8.519843196868896
ag1
(g5
S'\x06p\xe8\xee\xed#\x17@'
p41
tp42
Rp43
aF-5.700000000000003
aF-4.9
aF-3.7
aF-5.700000000000001
aF-4.600000000000001
aF9.343969318643213
aF-3.5
aF-4.0
aF-4.8000000000000025
aF-3.600000000000002
aF-3.600000000000002
aF-4.799999999999999
aF-5.300000000000001
aF-4.2
aF-4.200000000000001
aF-5.800000000000001
aF-4.699999999999999
aF-3.4
ag1
(g5
S'\x0cC\xcf9\xac\x9c\x17@'
p44
tp45
Rp46
ag1
(g5
S'X\x1dfg\xe3- @'
p47
tp48
Rp49
aF-2.700000000000001
aF-4.7
aF-3.2
aF-3.3
aF-5.600000000000001
aF-6.200000000000001
aF8.983887065947055
aF-3.4000000000000017
ag1
(g5
S'N\xbe\xed\x1d\nK @'
p50
tp51
Rp52
aF8.378041644394397
aF-3.5000000000000018
aF-4.6000000000000005
aF-4.200000000000001
aF-3.700000000000002
aF-4.3
aF8.998620708286762
aF-5.5
aF-6.600000000000001
aF-3.2000000000000015
aF-3.6
aF-4.5
aF-3.3
aF9.273345478065313
aF-4.8000000000000025
ag1
(g5
S'\xeeh*\xcc`A\r@'
p53
tp54
Rp55
aF-4.6000000000000005
ag1
(g5
S'\x86[V&\xa3\xb7\x1b@'
p56
tp57
Rp58
ag1
(g5
S'\x0f\x08o\xc3\xba\xff\x1a@'
p59
tp60
Rp61
aF-4.1
aF-5.199999999999999
aF-3.8
aF-5.099999999999999
aF-4.400000000000002
ag1
(g5
S'6\x88v\xa0\x85_\x1e@'
p62
tp63
Rp64
aF9.129813916236163
aF-3.6
aF-5.3999999999999995
aF9.11189101524651
aF-5.3000000000000025
aF-3.9
aF-3.8
aF-4.800000000000001
aF-5.1
aF-3.7
aF-3.4
aF-4.3
aF6.27376616001129
ag1
(g5
S'\x80\x8f\x0e\xe7\x9d> @'
p65
tp66
Rp67
aF-5.900000000000001
aF-4.7
aF-3.4
aF-3.8
aF-4.1
aF-5.900000000000001
aF-3.4000000000000017
aF-3.7
aF9.126675547659397
ag1
(g5
S'\xdcg\x9e\xa1\xc1\xc6 @'
p68
tp69
Rp70
aF8.207424473762511
aI0
aF-4.4
aF9.080557438731194
ag1
(g5
S'\x02\xad\x9b\t\x9b\xd7 @'
p71
tp72
Rp73
aF9.15024696290493
aF-3.700000000000002
aF-6.400000000000002
aF-4.2
aF8.543174934387206
aF-3.600000000000002
aF-3.5
ag1
(g5
S'\xfaa9\x1a,z\x1e@'
p74
tp75
Rp76
aF-5.600000000000001
aF-3.8
aF-3.6
aF-3.1
aF-3.3000000000000016
aF-4.1
aF-3.8
aF8.547866135835648
aF-3.7
aF-3.3
aF-7.400000000000001
aF-0.7999999999999999
aF-3.1
aF-1.7
aF-5.4
aF-4.0
aF-1.0999999999999999
aF-3.7
aF-4.4
aF-3.1
aF-5.800000000000001
aF9.005672465264798
ag1
(g5
S'f5\x1c\x05\x9a\xef @'
p77
tp78
Rp79
ag1
(g5
S'X\xfd`\x11LJ @'
p80
tp81
Rp82
aF-1.2
aF5.665888565778731
aF-3.5
aF-5.600000000000002
aF-4.4
aF-2.3000000000000007
aF-4.4
aF-3.600000000000002
aF9.015870475769043
aF-3.4
aF-3.7
aF-4.400000000000002
aF8.805075925588607
aI-3
ag1
(g5
S'\xe3\xff\xb7\xee\x004 @'
p83
tp84
Rp85
aF-6.8000000000000025
aF9.021787294745446
aF9.124393060803413
aF-8.000000000000002
aF-5.200000000000001
aF8.872161415219306
aF-4.1
aF-4.2
aF-3.5000000000000018
aF-4.0
aF8.171054035425186
aF8.900617238134146
aF-0.7
aF-4.0
aF-3.4
aF8.919218023121356
aF-5.900000000000001
aF-4.600000000000002
ag1
(g5
S'l\x90\xe9\xf2O\xb1 @'
p86
tp87
Rp88
aF7.891493991017342
aF9.174683065712452
aF-0.7
aF-6.400000000000002
aF-0.7999999999999999
aF-4.500000000000002
aF-4.4
aF-3.4
aF-6.0
aF-1.3
aF-6.4
aF-5.800000000000001
aF-3.1
aF9.459909128025174
aF-4.3
aF-3.7
aF-3.2
ag1
(g5
S'\xa4\x04\xce\xe7\x90\x19 @'
p89
tp90
Rp91
aF-0.7
aF-0.9
aF-3.7000000000000006
aF-3.5000000000000018
aF8.224843567609787
aF9.173563472926617
aF-1.4000000000000001
aF-0.8999999999999999
ag1
(g5
S'\xa4\xea\xaf\xa2\xb9\xfd\x1f@'
p92
tp93
Rp94
aF-5.800000000000003
aF-5.300000000000001
aF-1.2999999999999998
aF-0.2
ag1
(g5
S'h\x90s\xe3\\F\x1e@'
p95
tp96
Rp97
aF-3.4
aF-0.7999999999999999
aF-6.100000000000001
aF-3.7
aF-4.900000000000003
aF8.809673695266246
aF-6.900000000000002
aF-3.5
aF-3.600000000000002
aF8.178821498155594
ag1
(g5
S'\x81\x81\x87\xb0\x99\xea\x18@'
p98
tp99
Rp100
aF7.879168754816055
ag1
(g5
S'\x93s\x82\xb1\xc2W @'
p101
tp102
Rp103
aF-4.100000000000001
aF5.509722352027891
aF8.629540652036667
aF6.978187343478202
aF9.139235381782054
aF-0.8999999999999999
aF-3.900000000000002
aF-4.3000000000000025
aF-3.7
aF-0.8999999999999999
aF-4.9
aF8.561691926419735
aF-0.9
aF-5.1
aF7.26467805802822
aF-3.2
ag1
(g5
S'\x81=?5\x0c\xb2 @'
p104
tp105
Rp106
aF-1.0
aF8.127634310722351
ag1
(g5
S'a\x1d\x97\xbaZ\xba\x1e@'
p107
tp108
Rp109
aF-3.3
ag1
(g5
S'\x8d\xdf\xb1$4\xa9\x1c@'
p110
tp111
Rp112
aI-3
aF9.263551065325737
aF-1.0
ag1
(g5
S'\x06N\xef\x10e\x98\x17@'
p113
tp114
Rp115
aF7.210599505901335
aF-6.500000000000002
aF-1.2999999999999998
ag1
(g5
S'#r\\\xc6[\x11 @'
p116
tp117
Rp118
ag1
(g5
S'\xbd\xe8dp\x8f\xcf @'
p119
tp120
Rp121
ag1
(g5
S'2\xf6\x81s\xfc\xd0 @'
p122
tp123
Rp124
aF-3.8
ag1
(g5
S'R\x8e\xd8\x93\xc0\xa4 @'
p125
tp126
Rp127
aF-5.5
aF8.45436113551259
aF-4.2
aI-3
aF-4.7
aF-4.0
aF-3.2000000000000015
aF9.272432870417834
ag1
(g5
S'\x1e\x07M8\x89r\x1d@'
p128
tp129
Rp130
ag1
(g5
S'b%>\xebEp\x17@'
p131
tp132
Rp133
aI-3
ag1
(g5
S'4\xed\xa4FI\xe8\x1c@'
p134
tp135
Rp136
aF-3.2
aF-3.3
aF-3.5
ag1
(g5
S'$\xa0q\xe2\x01\x05\x1e@'
p137
tp138
Rp139
aF-3.2000000000000015
aF-4.400000000000003
aF-6.100000000000001
ag1
(g5
S'\xcdP\x86\xa9\xd6G\x1b@'
p140
tp141
Rp142
aF-3.3
aF-3.9
aF5.705126911401747
ag1
(g5
S'~\xa1\xede\xe9%!@'
p143
tp144
Rp145
aF9.214182868599892
aF-7.000000000000002
aF-7.5000000000000036
ag1
(g5
S'\\\x835\xd3P\xf9\x1d@'
p146
tp147
Rp148
aF-3.6
aF8.930376046895981
aF9.060618411004544
aF-5.300000000000001
aF-3.1
aF-3.7
ag1
(g5
S'\x0b\x05\xa5m/\x90\x1f@'
p149
tp150
Rp151
aF7.8283358398824925
aF8.494822645187378
ag1
(g5
S'\xcc\x97\xe6\x089\x0c\x1d@'
p152
tp153
Rp154
aF-4.0
ag1
(g5
S'\xd8\xb5\xcd\x96\xcc\x82\x1f@'
p155
tp156
Rp157
ag1
(g5
S'GP`\x15<D @'
p158
tp159
Rp160
aF7.743446215242146
aF-4.3
ag1
(g5
S'\xbe\xc2bX\xd3\x1d @'
p161
tp162
Rp163
ag1
(g5
S'D*\xa6^j\x0c\x1e@'
p164
tp165
Rp166
aF8.23857107758522
ag1
(g5
S'\xfca\xbeh\xa1\xdc\x19@'
p167
tp168
Rp169
aF-3.800000000000002
ag1
(g5
S'm\xd12\x05\xe0\x96\x1f@'
p170
tp171
Rp172
aF-4.0
ag1
(g5
S'$|\xfb\xa5w<\x1f@'
p173
tp174
Rp175
aI0
aI-3
aF-5.2
aF9.266356036067009
aF9.237520909309387
aF8.63474331498146
aF9.394054643437267
aF-3.5
aF8.416712241619825
aF9.45858723204583
ag1
(g5
S'\x8a8\x1c\xc7\x1f\x82\x1b@'
p176
tp177
Rp178
aF-3.2
aF-3.7
aF-4.2
aF-4.3
aF-4.3
aF-3.8
aF7.800454616546631
aF-3.3
ag1
(g5
S'~`\xd4\x081\x96\x1e@'
p179
tp180
Rp181
ag1
(g5
S'H\x811\xac\xea\x0f\x1f@'
p182
tp183
Rp184
ag1
(g5
S'8\x9b\x19\xfc\xbf\xb3 @'
p185
tp186
Rp187
aF-4.800000000000001
aF-4.3
ag1
(g5
S'\xf8\x08m\xe8\xd7\x06\x1d@'
p188
tp189
Rp190
ag1
(g5
S"\x90\xce\x83\xbaO'\x1c@"
p191
tp192
Rp193
aF-3.3
aF9.207098372280598
aF-3.8
aF-7.700000000000002
aF7.141751618683337
aF9.221561066806316
ag1
(g5
S'\xabsn\x1f\xea\x8e\x1f@'
p194
tp195
Rp196
aF8.229383492469788
aF7.503171160817146
aF9.433220298960805
aF-5.700000000000001
aF9.352213836833835
ag1
(g5
S"\xf7\x89R\xbc'\x13\x1e@"
p197
tp198
Rp199
ag1
(g5
S'[\xd7\x8b\xaf\x07F\x1d@'
p200
tp201
Rp202
aF-3.2
aI-3
aF-3.5000000000000018
aF-3.7
ag1
(g5
S'\x8cP\xb4\xc9\x83,!@'
p203
tp204
Rp205
aF-3.5
ag1
(g5
S'\xd6 \xd7V\x8f9!@'
p206
tp207
Rp208
ag1
(g5
S'J(\xff\xadN\x95\x19@'
p209
tp210
Rp211
aF7.587876316905021
aF-3.6
aF8.352953827381134
ag1
(g5
S'\x03\xbd\xe5\xcaD%!@'
p212
tp213
Rp214
aF8.959485760331154
ag1
(g5
S'\xeb9uW\xdd\x1d\x1d@'
p215
tp216
Rp217
aF-3.6
aF8.481985810399056
aF8.452045120298862
aF9.29791788548464
aF-3.4
aI-3
aF-6.700000000000002
aF9.210443438589573
aF9.003376746177674
ag1
(g5
S'k\xfcL\xd0\x0c\xc2\x1c@'
p218
tp219
Rp220
aF-4.5
aF-3.9
aF9.359785757958889
aF9.141068834066392
ag1
(g5
S'.\x1c/[\xcc\x94 @'
p221
tp222
Rp223
aF8.470629438757896
aF9.211614480614662
aF9.151249554753303
aF-4.1
aF-3.8
ag1
(g5
S'pkq`\xd6\xfd\x1e@'
p224
tp225
Rp226
aF8.929772594571114
ag1
(g5
S'\xa4\x82w\xb8h\xca\x1f@'
p227
tp228
Rp229
aF-3.4
aF-4.300000000000001
aF-4.800000000000001
aF7.806143662333488
aF8.961597570218146
aF-3.3
aF-4.3
aF8.069770729541778
aF8.667554049938918
aF-3.2
aF-8.600000000000001
aF8.74929386228323
ag1
(g5
S'\xe8\xa5\x82\xfdB\x01\x1d@'
p230
tp231
Rp232
aF8.805533593147993
aF8.938326734304429
ag1
(g5
S'\xd9\x85z\xc8t\\ @'
p233
tp234
Rp235
aF7.469161719083786
aF9.0617077447474
aF8.899504587054253
aF7.67326479665935
aF9.089950780570508
aF-5.300000000000001
aF7.3962940920377145
aI0
aF-8.8
ag1
(g5
S'D\x01\x1f?\xc7\x1c\x1f@'
p236
tp237
Rp238
aF9.264711724221707
aF-5.600000000000001
aF-3.7
ag1
(g5
S'\xd4\xa4\xc3\x86\xe1\x82!@'
p239
tp240
Rp241
aF8.462588459253311
ag1
(g5
S'Ux\xe6\n\xae\xdd\x1f@'
p242
tp243
Rp244
aF-3.4
aF9.263173343241215
aF8.076653671264648
aF9.255729252099991
aF9.256345020234585
aF9.00595019608736
aF8.918431466817855
aF-4.1
aF-3.4
aF8.8716403901577
aF8.96680253446102
aF-4.5
aF8.422533003613353
aF-4.3
aF9.203650145977736
aF9.499220479425276
aF7.492514753341675
aF-3.6
aF-5.4
ag1
(g5
S'\xbb"!\x94\x01\x8e @'
p245
tp246
Rp247
ag1
(g5
S'x\xf5gL|;\x1d@'
p248
tp249
Rp250
aF6.8860872149467465
ag1
(g5
S'\x00\xc4\xccUr\xec @'
p251
tp252
Rp253
ag1
(g5
S'Q\xd2[\t\xb1\x17\x1b@'
p254
tp255
Rp256
ag1
(g5
S'&\x8d\xab\x83\xbe\xee\x1f@'
p257
tp258
Rp259
aF-4.0
aF9.357560943439603
ag1
(g5
S'\x85\xdbM\xe5\xad\xec\x1d@'
p260
tp261
Rp262
aF-4.0
aF8.307550996541977
aF-3.7
aF8.607222056388855
aI-3
ag1
(g5
S'\x8c\xd9\x19\xdb\xbf" @'
p263
tp264
Rp265
aF8.648031211644412
aF-3.600000000000002
ag1
(g5
S'\xd6\xf1#\x02\xc6\x8c\x1f@'
p266
tp267
Rp268
aF-3.5000000000000018
aF9.183060704916716
ag1
(g5
S'k\xf9\xb1qH\xc9\x1e@'
p269
tp270
Rp271
aF-3.9
aF9.241743370890617
ag1
(g5
S'\x14\xa6C\x9f{\xef\x1a@'
p272
tp273
Rp274
aF-4.3
aF7.763061624765395
aF-3.7
ag1
(g5
S'\xfex\xed\x1b9\x17\x1d@'
p275
tp276
Rp277
ag1
(g5
S"\xda\xda'\xb2\x11\x1c\x1c@"
p278
tp279
Rp280
aF9.201496879756451
aF8.897908481955529
aF9.288700143992902
aF-4.0
aF-4.200000000000002
aF-4.4
aF8.946082979440689
aF8.96204041838646
aF8.99422514885664
ag1
(g5
S'\xb5^\x9f\xeaxM\x1a@'
p281
tp282
Rp283
ag1
(g5
S'q[\xeb\xcfJ\xb3\x1c@'
p284
tp285
Rp286
aF8.91838830895722
ag1
(g5
S'\xf1S7\x8f>5\x1d@'
p287
tp288
Rp289
ag1
(g5
S'3|\xb2<\xfa\xb1\x1e@'
p290
tp291
Rp292
ag1
(g5
S'\xc7\x0f\x86\x11\xab7\x1c@'
p293
tp294
Rp295
aF-4.600000000000003
ag1
(g5
S'0\x0f\xdb\xd1_\xb8 @'
p296
tp297
Rp298
aF9.12600986212492
ag1
(g5
S'\xfc\xdcNn\xa3\x84\x1d@'
p299
tp300
Rp301
ag1
(g5
S'\xfdX\xffh\xc4@\x1e@'
p302
tp303
Rp304
aF8.28363628089428
aF-3.700000000000002
aF8.687436835467816
aF-4.499999999999999
ag1
(g5
S'|\x80$\x14\x92I\x1f@'
p305
tp306
Rp307
aF8.537546771764756
aI-3
aF-3.8
aF-5.900000000000003
aF8.742042587697506
aF8.846081982925535
aF9.059397737681866
aF9.330863654240966
aF8.307469002902508
aI-3
aF8.627922037243843
aF9.033188084512949
aF8.827832014858723
aF9.00236180871725
aF8.846991737931967
ag1
(g5
S'T\xf4\x13C\xe0\x1a!@'
p308
tp309
Rp310
aF5.904805421829224
aF5.191257220506666
aI0
aF8.757339215278625
ag1
(g5
S'~)\xb8p\x9eG\x1c@'
p311
tp312
Rp313
aF7.308752393722534
aF-3.8
aF8.82098038457334
aF9.165288695693016
aF-4.9
ag1
(g5
S'Kq\xd1\x0c\xa9+!@'
p314
tp315
Rp316
ag1
(g5
S'\xdb\xd3x\x89\xd7\x83\x11@'
p317
tp318
Rp319
ag1
(g5
S'\x9e\xdd\x02\xd7\xea\x7f\x1f@'
p320
tp321
Rp322
aF-6.200000000000004
aF-3.8
aF7.419231575727462
aF8.670232236385345
ag1
(g5
S'\xf1/\xe6\xb2\xf0R @'
p323
tp324
Rp325
aF-3.7
aF8.820327305793763
aF7.785520783066749
aF6.857449208199977
aF9.311366878077388
ag1
(g5
S'\x81\x10\xbb;i\xd0 @'
p326
tp327
Rp328
ag1
(g5
S"e\xe9'4'\xc8 @"
p329
tp330
Rp331
aF8.837204452231527
aF8.865504071116447
aF-6.200000000000001
aF8.717612168192863
aF8.00916292667389
aF9.458628328889608
ag1
(g5
S'\xc0\x0e"5cp!@'
p332
tp333
Rp334
aF9.548648957535624
aI-3
aF9.20296408161521
aF-3.8
aF-3.3
aF7.4566759288311
aF7.919678822159767
aF-4.1
ag1
(g5
S'\x9e\x90\xc6\x99W  @'
p335
tp336
Rp337
aF-8.3
aF-3.7
a.