(lp0
F-3.8
acnumpy.core.multiarray
scalar
p1
(cnumpy
dtype
p2
(S'f8'
p3
I0
I1
tp4
Rp5
(I3
S'<'
p6
NNNI-1
I-1
I0
tp7
bS'\x98\x84\xe1\x02\xe4l\t@'
p8
tp9
Rp10
aF-4.6000000000000005
ag1
(g5
S'=rz\xf3\x8e\xe3\x16@'
p11
tp12
Rp13
aF2.301772660017016
aF-9.699999999999996
aF-5.300000000000001
aF-7.3
aF-3.1
aF-3.4
aF-5.1000000000000005
aF-4.300000000000001
aF-3.8
aF-1.0777329683303805
aF-5.300000000000001
aF7.6134899139404295
aF6.390545722842216
aF-10.099999999999998
aF-7.799999999999999
aF-7.499999999999999
ag1
(g5
S'\x10\x8f/\xa5\xce5\x18@'
p14
tp15
Rp16
aF-3.9
aF-8.799999999999994
aF-4.5
aF-5.800000000000001
aI-3
aF-6.800000000000001
aF-9.399999999999999
aF7.689935263991355
aF-7.8999999999999915
aF-3.8
aF-3.7
aF-7.000000000000001
aF5.712685018777846
aF-6.500000000000002
aF-3.7
aF-4.2
ag1
(g5
S'\x922P\xeb\xb2F\n@'
p17
tp18
Rp19
aF-4.3
aF-3.2
aF-8.599999999999994
aF-9.7
aF-3.5
ag1
(g5
S'\x86\x13-\x9d\xb1\xc5\x10@'
p20
tp21
Rp22
aF-5.6000000000000005
aF-5.800000000000001
aF-4.2
aF-4.800000000000001
aF-5.4
aF-5.300000000000001
aF-6.500000000000001
aI-3
ag1
(g5
S'-`,\xa2A\xbc @'
p23
tp24
Rp25
aF4.1458159446716305
ag1
(g5
S'\x938L\x02\x9c_\x1e@'
p26
tp27
Rp28
aF-3.2000000000000015
aF7.275757017731666
aF6.696853521559387
aF-5.800000000000001
aF-3.3
aF-3.1
aF-4.1
aF-4.0
aF-5.1000000000000005
aI-3
aF7.870890070497989
aF-4.5
aF6.161315047740937
aF-3.5
aF-4.2
aF-4.0
aF-3.2
aF-3.6
ag1
(g5
S'DT\x94!\x1d, @'
p29
tp30
Rp31
aF9.102336433529853
aF-4.6
aF-4.300000000000001
aF-3.2
aF-3.2
aF-3.8
aF8.32828480526805
aF-3.8
ag1
(g5
S'd\xb6\x97\x83\x8c\xc7\x1f@'
p32
tp33
Rp34
aF-3.5
aF-3.3
aF-4.7
aF-5.6000000000000005
aF-2.8000000000000007
aF8.601707011461258
aF-4.800000000000001
aF-4.4
aF-3.3
aF-4.2
aF-3.6
aF-4.5
aF-3.6
aF-3.7
aI-3
aF-3.9
aF-3.2
ag1
(g5
S'\x90\x8a\x9c\x84q\xa0 @'
p35
tp36
Rp37
aF-4.5
aF-4.0
aF-3.7
aF-5.1
ag1
(g5
S'9\xa7O\xa6S\x1d\x1f@'
p38
tp39
Rp40
aF-3.3
aF-3.4
aF-7.000000000000001
aF-3.3
aF-3.7
aF-3.2
ag1
(g5
S'4\xf5\xa8\xdejv\x1f@'
p41
tp42
Rp43
aF-4.9
aF-3.5
aF-3.2
aF-3.6
aF-4.8
aF-4.700000000000001
aF-3.8
ag1
(g5
S'm\xcc\xcd\xf2\x82\x97 @'
p44
tp45
Rp46
aF-3.9
aF-4.1
aF-3.6
aF-3.5
aF-3.8
aF-3.2
aF-5.1000000000000005
aF7.6742028325796126
aF9.271821349859238
aF-3.4
aF-3.3
aF-3.5
aF-4.800000000000001
aF-6.3
aF-5.999999999999998
aF-3.5
aF-3.4
aF-4.6
aF-3.4
aF7.100208916515111
aF-3.2
aF-3.4
aF-3.5
aF-3.5
aF-3.9
aF-4.0
aF-3.8
aF-3.9
aF-4.0
aF-3.5
aF-3.8
aF-4.2
aF-3.5
aF-3.9
aF-5.300000000000001
aF-3.9
aF-8.899999999999999
aF-6.1000000000000005
aF-4.800000000000001
aF-4.1
aF-4.7
aF-5.0
aF-3.6
ag1
(g5
S'\xa09\xa2@n\x0f @'
p47
tp48
Rp49
aF-3.4
aF-4.899999999999999
aF-5.200000000000001
ag1
(g5
S'\x0e(\xd1\xdb7\x0e\x18@'
p50
tp51
Rp52
aF-3.4
aF-4.1
aF-3.9
aF-3.7000000000000015
aF-4.800000000000001
aF-3.2
aI-3
aF-4.800000000000001
aF-3.7
aF-3.6
aF-3.2
aF-3.5
aF-7.3999999999999995
aF-4.1
aF-3.6
aF9.526299523562193
aF-3.7
aF-3.3
aF-3.5
aF-4.1
aF-3.3
aF9.103162387013436
aF-5.300000000000001
aF-6.700000000000001
aF-3.4
aF-4.1
aF-3.7
aF-6.700000000000001
aF-3.7
aF-4.800000000000001
ag1
(g5
S'au\xc8\xa5,\x99\x1e@'
p53
tp54
Rp55
aF-6.300000000000001
aF-4.1
aF-5.700000000000001
aF-4.5
aF-3.6
aF-3.3
aF-3.1
aF-4.4
aF7.146053773164749
aF-2.500000000000001
aF-4.2
aF-3.1
ag1
(g5
S'\xf1\xbb\xa6\x82G\x05\x1d@'
p56
tp57
Rp58
aF-4.1
aF-5.1000000000000005
ag1
(g5
S'K*\xacE\x8f\xf5\x19@'
p59
tp60
Rp61
aF-4.0
aF-4.6
aF9.159112614393234
aF-3.9
aF-4.300000000000001
aF-7.700000000000001
aF-3.4
aF7.504432046413421
aF6.017141166329384
aF-3.8
ag1
(g5
S"^\xe3\xdc\xb1\xa8'\x1f@"
p62
tp63
Rp64
aF-3.5
aF-4.9
aF-4.1
aF-3.9
aF-3.1
aF7.804416084289551
ag1
(g5
S'\xb7\x9fq\xbb\xd8H @'
p65
tp66
Rp67
aF7.950759917497635
aF-3.4
aF-3.1
aF-4.5
ag1
(g5
S'\xa7\xde\xbaj\xa9q\x1f@'
p68
tp69
Rp70
aF-6.4
aF-3.6
aF-3.8
aF-3.7
aF-3.4
aF9.072826558351517
aF-3.5000000000000018
aF-3.9
ag1
(g5
S'\xd8\xf9\xec\xe0\x86\xb1\x17@'
p71
tp72
Rp73
aI-3
aF-3.1
aF9.506801886856556
aF-3.3
ag1
(g5
S'\x86\xcd\xb7\xc5\xc4s\x1c@'
p74
tp75
Rp76
aF-4.0
aF-3.2
aF-4.6
aF-6.300000000000001
ag1
(g5
S'\xbc\xb25\xfc\x16m @'
p77
tp78
Rp79
ag1
(g5
S'V9M\xc2\x01\x8a\x1f@'
p80
tp81
Rp82
aF-4.1
aF8.483255469799042
aF-3.7
aF7.830531492829323
aF-5.5
aF-3.2
aF8.945800122618675
aF-6.1
aF-3.5
aF-3.4
aF-4.0
ag1
(g5
S'GU\xf2\xbd&|\x1f@'
p83
tp84
Rp85
aF9.21070272475481
aF-3.3
aF-3.1
ag1
(g5
S'\xbb\xecH\x14{\x01!@'
p86
tp87
Rp88
ag1
(g5
S'\x16A\x82#\x8e\x93\x1e@'
p89
tp90
Rp91
aF-3.3
aF9.590348314633593
aF-3.8
aF8.240524731576443
aF-3.3
aF9.654041706398129
aF-3.5
ag1
(g5
S'\x06\xb3:\x85Y@\x1c@'
p92
tp93
Rp94
aF-3.1
aF8.458712098002433
ag1
(g5
S'S\xc4\xdd\x1b\xae\x0c\x1b@'
p95
tp96
Rp97
aF-3.6
aF-3.2
aF-3.2
aF-4.1
aF-4.0
aF-3.2
aF9.56168296225369
aF-5.1
aF-3.9
aF-3.7
aF-3.8
aF8.20882979631424
ag1
(g5
S'_\x01s\x1a \\\x1f@'
p98
tp99
Rp100
ag1
(g5
S'x\x92\xa3YS\x04 @'
p101
tp102
Rp103
aF-4.7
aF-4.3
ag1
(g5
S'\x0c\xa4\x91C\x11\x90\x1e@'
p104
tp105
Rp106
aF0.7896579265594479
aF-3.4
aF-3.2
aF-3.9
aF-5.4
aF-3.8
aF7.575778937339782
aF-5.0
aF8.98568178191781
aF-3.2
aF-3.6
aF-3.9
aF-3.2
ag1
(g5
S'\x1fLh\x99`E\x11@'
p107
tp108
Rp109
aF-3.1
aF-3.8
aF-5.6000000000000005
aF-4.0
aF-3.8
aF-3.6
aF-3.2
aF-3.4
aF-4.0
aF-3.7
aF-4.800000000000001
aF-3.5
aF-4.2
aF-7.6
aF-3.9
aF-3.8
aF-3.9
ag1
(g5
S'\xfd\x92\x03\xc5\xbbH\x1a@'
p110
tp111
Rp112
aF-5.300000000000001
aF-3.5
aF-4.2
aF-3.3
aF-4.3
aF-3.3
ag1
(g5
S'\x9c\xba\x14 \n\xfa @'
p113
tp114
Rp115
aF9.39364451766014
aF-2.900000000000001
aF-3.9
aF9.683279103413224
aF8.881059481203556
aF9.1897077975329
ag1
(g5
S'X^u7\x9d\x1c\x1f@'
p116
tp117
Rp118
aF8.290636664628982
aF9.682666029036046
ag1
(g5
S"(\xfe\xe7'd\x18\x1a@"
p119
tp120
Rp121
aF8.858088003098965
aF-3.7
aF-6.4
ag1
(g5
S'\x03\x03`\x1a\xb4,\x1f@'
p122
tp123
Rp124
aF-7.100000000000001
aF-4.700000000000001
aF7.4344093799591064
aF-3.5
aF-4.9
aF-3.600000000000001
aF-3.4
aF-3.2
aF-4.6000000000000005
aF-6.0
aF-3.5
aF-3.2
aF-3.7
aF-3.8
aF-3.3
aF-3.7
aF-5.1000000000000005
aF-3.3
aF7.773241467773914
ag1
(g5
S'\x98?\x80\xed\xcb\xc5 @'
p125
tp126
Rp127
aF-3.4
aF-4.4
ag1
(g5
S'\x1b\x8a\x0c#\n\\\x1c@'
p128
tp129
Rp130
aF-3.8
aF-4.7
aF-4.6
ag1
(g5
S'\xa9:Q\xb1\xcc+\x17@'
p131
tp132
Rp133
aF-3.8
aF-3.1
aF-3.8
aF-3.7
aF-4.4
aF6.861897578835487
aF-3.2
aF-4.2
aF-4.8
aF4.046088755130768
ag1
(g5
S'\x1dt\x97\xeb\x04\x0c @'
p134
tp135
Rp136
aF-6.5
ag1
(g5
S'DF\x94"]\x9b\x16@'
p137
tp138
Rp139
aF8.452784031629562
aF-5.300000000000001
aF-4.2
aF8.432594160735608
aF9.33105014115572
ag1
(g5
S'S\xc9t\x1fK-\x1d@'
p140
tp141
Rp142
aF-3.8
ag1
(g5
S'-z\x90E\xde\x95 @'
p143
tp144
Rp145
aF7.213284350931644
aF9.269375510513783
aF-4.800000000000001
aF-3.5
aF-4.3
aF8.843684408068658
aF-3.9
aF-4.2
ag1
(g5
S'_v\xbe!#\xcc\x1d@'
p146
tp147
Rp148
ag1
(g5
S'"5f\x81\xd5\x98 @'
p149
tp150
Rp151
aF-3.1
ag1
(g5
S'\xb3\x93\xdf\xa0]\x0b @'
p152
tp153
Rp154
ag1
(g5
S'\xb9\xa2\xaf!\xbc\x8d @'
p155
tp156
Rp157
aF-3.4
ag1
(g5
S'.\x96\x13LY"\x1e@'
p158
tp159
Rp160
aF-3.2
aF-3.6
aF-5.2
aF-3.3
aF9.348388588428497
aF-4.8
aF8.06797599196434
aF-4.0
ag1
(g5
S'\xfbj\xfc\x9f\xeaY!@'
p161
tp162
Rp163
aF8.360041424632072
aF-3.6
aF8.097860699892044
aF-3.7
aF5.812494659423828
aF-5.6000000000000005
aF8.80718345940113
aF9.457966792397201
aF8.270097052305937
ag1
(g5
S'\xedG\xdc\xfeH\x82 @'
p164
tp165
Rp166
aF6.946447575092316
aF-3.2
aF8.944094007834792
aF-3.8
aF-4.0
aF-4.1
aF-3.8
aF-3.2
aF-3.3
aF7.642874318361282
aF7.332008852064609
aF-4.7
aF8.772333830595016
aF-3.7
aF-4.800000000000001
aF-3.2
aF-4.2
aF-3.600000000000001
aF-5.800000000000001
aF7.287212155759335
aF-5.5
aF-6.200000000000001
aF-4.4
aF-3.3
aF8.85895170867443
aF-5.9
aF7.741909635066985
aF-4.7
aF-7.0
ag1
(g5
S'2\xde\x04\xf8>\xd6\x1b@'
p167
tp168
Rp169
aF-5.0
aF-4.5
aF8.792301692068577
aF-3.3
aF-5.6000000000000005
aF-4.1
aF-3.5
aF-3.7
aF-3.9
ag1
(g5
S'&]\xdf\x81|\x1a\x1e@'
p170
tp171
Rp172
aF8.420062181353568
aF-5.0
aF-5.9
aF-3.3
aF-3.2
ag1
(g5
S'\xe0\xd0\xc1t\xa7B @'
p173
tp174
Rp175
aF-3.1
aF-5.4
aF-3.3
aF-3.1
aF-3.4
aF4.608589869737624
aF-4.1
aF-7.6000000000000005
aF8.40986763238907
aF-3.9
aF7.278283350169659
aF7.950831323862076
aF8.083354642987251
aF-3.8
ag1
(g5
S'\x12\xd0G\xabJ<\x1c@'
p176
tp177
Rp178
ag1
(g5
S'\xef\xd2\x9f\xe6+\xf1 @'
p179
tp180
Rp181
aF-3.9
ag1
(g5
S'TX\xd4nA? @'
p182
tp183
Rp184
ag1
(g5
S'\xa4m\xfe\x1bk\xbf\x1c@'
p185
tp186
Rp187
aF7.850830841064453
aF-4.2
aF-3.6
aF-4.6000000000000005
aF-3.2
aF-3.9
aF-4.0
aF8.506694789230824
aF-4.8
aF-3.8
aF-3.2
aF-3.8
aF-4.1
aF-3.8
ag1
(g5
S'\x8c\xb8\xcd\xf4^\xbf\x1f@'
p188
tp189
Rp190
aF8.043723315745591
aF6.718523168191313
aF-4.300000000000001
aF-5.0
ag1
(g5
S'\x9e\x0cl\x99\xd1\xbc\x18@'
p191
tp192
Rp193
aF-3.3
ag1
(g5
S'\xc4\x86z\x06-\xfb\x15@'
p194
tp195
Rp196
ag1
(g5
S'\xa2T\x9a@\xb2Y\x1e@'
p197
tp198
Rp199
ag1
(g5
S'd\xf5\x8a\xbd\n\xa3\x1d@'
p200
tp201
Rp202
aF6.857597121596337
aF-3.2
ag1
(g5
S'>\x85\xff\x01\x98P\x14@'
p203
tp204
Rp205
aF9.410019426047802
aF-3.7
aF-3.8
aF-4.7
aF-3.9
aF-4.9
aF-3.3
aF-3.9
aF-4.5
aF8.576127652823924
aF-4.3
aF8.986920695006848
aF6.148071238398551
ag1
(g5
S'\xce\xf9\xab\xbfa\xb7\x19@'
p206
tp207
Rp208
ag1
(g5
S'\xbfP44\x13\x07\x1a@'
p209
tp210
Rp211
ag1
(g5
S'N\x84w\x9f\xcc\x83\x1c@'
p212
tp213
Rp214
aF-3.5
aF7.612659836933016
aF-3.3
aF-6.7
ag1
(g5
S'\xe3"\xb2\xb6\xebQ\x1e@'
p215
tp216
Rp217
aF4.732057540118694
aF-4.0
aF-3.7
aF7.9695911556482315
aF-2.8000000000000007
aF-5.7
ag1
(g5
S'\x01=\xa1\xa7\x8f\xd5\x1d@'
p218
tp219
Rp220
aF8.594529390335083
aF-4.1
aF-4.6
aF-4.4
aF-3.3
aF-7.1000000000000005
aF-4.4
ag1
(g5
S"\xf2'\x08\xeb\xe4\xc6\x1e@"
p221
tp222
Rp223
aF-3.4
ag1
(g5
S'\xb7_\xba\xf7\xc8\x0b\x10@'
p224
tp225
Rp226
aF-4.5
ag1
(g5
S't[\x1f\xacLj\x1b@'
p227
tp228
Rp229
aF-4.5
aF7.467526797950267
aF-3.2
ag1
(g5
S'\xd8\xbe\x16KG\x18\x1a@'
p230
tp231
Rp232
aF7.892141419649124
aF-6.9
aF-4.1
aF-3.4
aF5.536317813396453
aF8.016340979933739
aF-3.2
aF7.81817501783371
aF-6.500000000000002
ag1
(g5
S'\x10\xee\x17\x83\xf2\xff\x1b@'
p233
tp234
Rp235
aF-7.000000000000001
aF-3.1
aF-6.000000000000001
ag1
(g5
S'\x82\x81\x0flBX\x1d@'
p236
tp237
Rp238
aF9.057129552029073
aF-3.1
aF-5.1000000000000005
ag1
(g5
S'i\xaa\x18\xc8\xf8G\x16@'
p239
tp240
Rp241
aF-4.4
aF6.933430311083793
aF-3.8000000000000016
aF-5.800000000000001
aF-5.799999999999997
aF-3.7
aF-6.200000000000001
a.