(lp0
cnumpy.core.multiarray
scalar
p1
(cnumpy
dtype
p2
(S'f8'
p3
I0
I1
tp4
Rp5
(I3
S'<'
p6
NNNI-1
I-1
I0
tp7
bS"\x82\x19\xb2'\xe3[ @"
p8
tp9
Rp10
aF-4.2
aF-4.0
aF-3.4
aF6.85028551518917
aF-3.1
aF-4.7
aF-5.2
aF-4.2
aF-3.9
aF-4.9
ag1
(g5
S'\xb5,Z\xfdoO\x18@'
p11
tp12
Rp13
aF-6.599999999999999
aF-5.2
aF-4.800000000000001
aF-8.299999999999999
aF-4.3
aF6.535397803783416
aF-4.3
aF-3.6
ag1
(g5
S'\xf8\xc0i\xf4P^\t@'
p14
tp15
Rp16
aF-3.3
ag1
(g5
S'\xe2 2-\xeaZ @'
p17
tp18
Rp19
aF-6.100000000000001
aF-3.9
aF-3.8
aF-6.400000000000002
ag1
(g5
S'\xc1V\xc6\xedA\x01\x1f@'
p20
tp21
Rp22
aF-6.200000000000001
aF-5.300000000000001
aF4.435625565052031
aF-5.0
ag1
(g5
S'\x15\xfeD\xea\xfa\xb2\x19@'
p23
tp24
Rp25
ag1
(g5
S'\xfc\x94\x89\xf6\xea\xe8\x15@'
p26
tp27
Rp28
aF-3.2
aF-5.299999999999999
aF-4.0
aF-5.800000000000001
ag1
(g5
S'E\x85z&\x8b\x87\x1b@'
p29
tp30
Rp31
aF-4.9
aF-4.5
aF-6.8000000000000025
aF-6.500000000000002
aF-5.8999999999999995
aF-7.200000000000001
aF-6.500000000000002
aF6.08095564842224
aF-6.700000000000001
aF-5.699999999999998
aF-7.300000000000002
aF-4.1
aF-4.3
aF8.796470922976733
aF7.566151511669159
aF-3.8
aF-4.3
aF4.93917200565338
aF6.486389577388763
aF-4.5
aF-5.300000000000001
aI0
aI0
aI0
aF-4.5
aF-4.4
aF-3.5
aF-4.1
ag1
(g5
S'-\xbf"\x06\xfe\x14!@'
p32
tp33
Rp34
aF5.95953994989395
aF-3.7
aF-5.1
aF-3.9
aF-5.200000000000001
ag1
(g5
S'r\xde?\xd0@\xe2\x1c@'
p35
tp36
Rp37
aF-3.7
aF-4.6000000000000005
aF-3.9
aF-3.4
aF-3.3
aF-5.200000000000001
ag1
(g5
S'J\x91\xe9F\x0fj\x1b@'
p38
tp39
Rp40
aF8.831925351917743
aF-3.1
aF-4.4
aF-3.6
aF-4.1
aF-4.2
aF-5.100000000000001
aF-4.6000000000000005
aF-3.5
ag1
(g5
S'\xce\xf6\xb0U\xb2\x08\x1d@'
p41
tp42
Rp43
aF-4.300000000000001
aF-3.9
aF-3.9
ag1
(g5
S'\xce\x9e\x1e\xa8\xd9\xe8 @'
p44
tp45
Rp46
aF-3.600000000000002
aF-5.800000000000001
aF6.133200961351394
aF-3.5
aF-4.4
aF3.671777439117431
aF-4.9
aI-3
aI-3
aF6.515841630101203
aF-4.3
aF-4.2
aF-6.300000000000002
aF-4.1
aF-3.5
aF-3.4
aF-3.5
aF-3.8
aF-3.8
aF-6.300000000000002
aF-4.2
ag1
(g5
S'\xfed\x04/\xff\xd6\x18@'
p47
tp48
Rp49
aF-3.3
aF-5.600000000000001
aF-4.4
aF-4.100000000000001
aF-3.3
aF-4.4
aF7.374832019209862
aF-3.9
aF9.108247206360101
aF-3.3
aI-3
aF-4.100000000000001
aF7.706785553693772
ag1
(g5
S'\x00)\x17\xb8:\x9e\x15@'
p50
tp51
Rp52
ag1
(g5
S'%\xa8\xda\\_.\x1f@'
p53
tp54
Rp55
ag1
(g5
S'B\x8a\x9a\xeb\xbf\x9e @'
p56
tp57
Rp58
ag1
(g5
S'Z\x83\x14\xac?( @'
p59
tp60
Rp61
aF7.656350648403167
aF7.4034464955329895
aF-3.2
aF-3.6
aF-3.900000000000002
aF-4.3
ag1
(g5
S'\xfaK\x02\xb1\xc4D\x1c@'
p62
tp63
Rp64
aF-3.7
ag1
(g5
S'{\xe5i\xb3\xe05\x1f@'
p65
tp66
Rp67
aF-3.5
aF-4.300000000000001
aF-3.5
aF-4.1
aF-3.8
aF-4.0
aF8.96828169375658
aF-5.4
ag1
(g5
S'j\xd2y$\xcd\x1a\x1f@'
p68
tp69
Rp70
aF-4.300000000000001
ag1
(g5
S'\xcbZo\x05\xc4\xee\x1e@'
p71
tp72
Rp73
aF-5.4
aF-3.6
aF-3.2
aF-4.9
aF-4.9
aF-3.8
aF-3.500000000000002
aF-3.5
aI0
aF-3.7000000000000015
aF-3.2
aF-0.8999999999999999
aF-4.3
ag1
(g5
S'22\x04\xb3\x07M\x1f@'
p74
tp75
Rp76
aF7.272967225313186
aF-6.700000000000002
aF-1.0999999999999999
aF-4.2
aF-5.1
aF-0.9999999999999999
aF-3.1
ag1
(g5
S'\xb0\xdd\x89m\xf1\x8c\x1e@'
p77
tp78
Rp79
aF-0.9999999999999999
aF7.733679580688476
aF-3.8
aF-0.7
aF9.043891065567731
aF6.225380924344062
aF-1.2
aF-4.0
aF-3.7
aF-4.800000000000001
aF9.424665739759803
aF-4.2
ag1
(g5
S'\xe1S$4\tD\x1c@'
p80
tp81
Rp82
aF-6.200000000000001
aF8.520167392492294
aF-3.4
aF-3.2
aF-5.500000000000001
aF8.497042748332024
aF-3.9000000000000004
aF-4.6
aF8.48353129029274
aF8.583596807718276
aF-4.6000000000000005
aF-3.9
aF8.328715905547142
aF-4.6000000000000005
aF-4.1
aF-1.2
aF-3.4
aF-3.8
aF-4.9
aF8.939711730927229
aF6.354320859909057
aF-1.4000000000000001
aF-4.3
aF-4.0
aF-3.5
aF8.76194222047925
aF-3.2
aF-3.5
aI-3
aF-1.4000000000000001
aF-4.2
aF-3.2
aF-6.000000000000002
aF-5.300000000000001
aF7.501560878753662
aF-3.9
ag1
(g5
S'\x11\x9c\x91\xc8\xed\x85\x1e@'
p83
tp84
Rp85
aF-4.0
aF-4.1
aF-3.8
aF-5.500000000000001
aF-0.8999999999999999
aF8.567320057563483
aF-4.4
aF-4.3
aF9.098899210989476
aF-4.5
aF-3.5
aF7.995448109507561
aF9.152282127738
aF9.245257081091404
aF7.913195216655732
aF-4.200000000000002
aF-3.5
aF-1.1000000000000003
aF-3.9
ag1
(g5
S'\x103\xbc\xedv\xc3 @'
p86
tp87
Rp88
aF9.576306837983429
ag1
(g5
S'm\xa3\x15\x83]\xd6\x18@'
p89
tp90
Rp91
aF-4.1
aF-1.0999999999999999
aF-5.900000000000001
aF-1.4
aF9.357932747900486
aF7.528266007453203
aF-1.0
ag1
(g5
S'x\x98\x8c\x1a\xca\xb4 @'
p92
tp93
Rp94
aF-4.1
aF9.11999632716179
aF8.190735558560117
aF9.490769809484481
aF8.762644150853157
aI0
aF-1.3
aF-4.9
aF8.60501775443554
aF-4.7
aF8.21659213602543
aF7.231298854202031
aF-3.6
aF-3.9
aF9.483713255263865
aF-3.5
aF9.41239644959569
aI-3
aF-1.0999999999999999
aF-4.4
aF-4.0
aF9.358622237667442
ag1
(g5
S'\xf4\xbdk\xf9\xa9\xdc\x1f@'
p95
tp96
Rp97
aI-3
aF9.375462118163705
aF-6.100000000000001
aF-4.4
aF-3.3000000000000016
aF8.776635356247425
aF-3.8
ag1
(g5
S'v6V]\xd8E\x1c@'
p98
tp99
Rp100
aF8.809082463383675
aF-6.0
aF-3.5
aF8.640544945001603
aF-3.4
aF8.604274806380271
aF8.835535743832589
aF-4.7
aF-4.800000000000001
aF-4.0
ag1
(g5
S'\xcbS\xc4\xc1FF\x15@'
p101
tp102
Rp103
aF-1.0
aF-3.7
aF-3.7
aF8.134194164350628
aF9.923826353624463
aF9.69208687711507
aF-6.100000000000001
aF-4.500000000000001
aF-5.0
aF7.108383151888846
ag1
(g5
S'\x0c\xa1\xea}s\xae\x1b@'
p104
tp105
Rp106
aF-4.1000000000000005
aF-4.1
aF-1.1
aF9.101650001108647
aF-4.0
aF7.38032488822937
ag1
(g5
S'\xf2\x16\xaa\x8a\x12F @'
p107
tp108
Rp109
aF7.968929012119769
aF-1.6999999999999997
aF8.197754228115082
aF-4.3
ag1
(g5
S'h\xbb\xaa\xc9\x15\xca\x1c@'
p110
tp111
Rp112
aF-4.400000000000001
aF-4.3
ag1
(g5
S'\xcf\x12\x16\xdc\xb8\x1d @'
p113
tp114
Rp115
ag1
(g5
S'"o\xfbAU\x87 @'
p116
tp117
Rp118
aF-1.0
aF-4.0
ag1
(g5
S't\xdeV\x1dtY\x1e@'
p119
tp120
Rp121
aF-4.6000000000000005
aF-3.9
aF-3.7
aF-1.2
aF9.387051251810044
ag1
(g5
S'\xfeZ\x1b\xa8\x7f\xf6\x12@'
p122
tp123
Rp124
aF-0.9999999999999999
aF-5.200000000000001
aF8.929624613374472
aF8.655121292732655
aF5.117974422127009
aI-3
aI-3
aF-4.1
aF-4.500000000000001
ag1
(g5
S'\x9c\xf0\xe7/\x14Q @'
p125
tp126
Rp127
aF9.253387079760433
aI-3
aF9.331222265958786
aF-4.5
aF-3.2
aF-4.9
aF-4.800000000000001
aF-3.9
aI-3
aF8.21668239608407
aF-0.8999999999999999
aF-5.000000000000001
aF-4.1
aF-4.6000000000000005
aF-3.9
aF-4.800000000000001
aF-1.3
aF-4.800000000000001
aF-1.4000000000000001
aF-4.9
aF-3.5000000000000018
aF-3.2
aF8.649349853396416
aF-4.5
aF-1.2
aF-4.4
aF-3.1
aF-3.9000000000000026
aF8.997843270003795
aF7.991531884670257
aF9.298612913489341
aF-3.1
aF8.451910096406937
aF8.686595672369004
aF-3.3
aF-3.900000000000002
aF-6.600000000000001
aF-1.2
aF9.064536204002797
aF-1.2
aF-4.1
aF-5.600000000000002
aF-1.4000000000000001
aF8.354102051258087
aF8.404018101096153
aF-3.5
aF9.016313911229371
aF-3.6
ag1
(g5
S'\x84\xad\xc1\x1b\xd2=!@'
p128
tp129
Rp130
aF-3.9
ag1
(g5
S'NC;\xd6TP\x1e@'
p131
tp132
Rp133
aF-1.0000000000000002
aF-4.6000000000000005
aF-4.4
ag1
(g5
S'hpyF\xf2\x87\x1e@'
p134
tp135
Rp136
aF8.575567367672921
aF-3.7
aF-4.5
aF9.75809771567583
aF-4.000000000000002
aF-3.7
aF-1.1
aF-5.0
aF-3.6
aF-3.8
aF-0.8999999999999999
aF-4.2
aF-4.3
aF-5.600000000000001
aF7.819163165986538
aF-4.5
aF8.426949843764305
aF9.392490033060312
aF4.575928395986555
aF-5.200000000000001
aF-5.4
ag1
(g5
S'\xeb\x13U\xa1\x1c[!@'
p137
tp138
Rp139
aF-5.5
aF7.884956634044647
aF7.829833032190799
aF8.023399484157562
aF8.069736116379499
aF-1.2000000000000002
aF-4.000000000000002
ag1
(g5
S',\x94\xc1\xb7\xa7D\x1c@'
p140
tp141
Rp142
aF-3.3
aF-3.6
aF-0.7999999999999999
aF-4.5
ag1
(g5
S'\xc0\x1e\xe2.\x82f\x1b@'
p143
tp144
Rp145
aF8.754231536388398
aF-4.100000000000001
aF-3.2
aF-3.6
aF8.979568441212177
aF-0.9999999999999999
ag1
(g5
S'[P\xc2\xc1\x86c\x1c@'
p146
tp147
Rp148
aF-3.600000000000002
aF-1.1
aF-3.8000000000000025
aF-5.200000000000001
aF-0.9999999999999999
aF-3.5
aF-1.2000000000000002
aF-3.6
aF-3.5
aF8.057699930667876
aF-5.1000000000000005
aF-3.8
aI-3
aF-7.5
aF8.723179019242526
aF8.675174652785064
aF-3.4
ag1
(g5
S'\xf6m\xda\x92\x9c\x17 @'
p149
tp150
Rp151
aF-3.4
aF8.96355859786272
aF8.684802954364567
aF8.939982244372368
ag1
(g5
S'\xa4*\x07E\x9e\xf3\x1c@'
p152
tp153
Rp154
aF-3.5
aF-1.1
aF-5.0
aF-1.0999999999999999
aF-4.200000000000001
aF8.938134513795376
aF-4.0
aF8.95825328975916
aF-3.2
aF9.229333029687405
aF5.6885833621025075
aF9.190260569751263
ag1
(g5
S'\x0b\x1b\xe0\xd4\xa3, @'
p155
tp156
Rp157
aF-1.4000000000000004
aF8.76778426412493
aF-4.2
ag1
(g5
S'G\xec*\xe2\xe21\x1e@'
p158
tp159
Rp160
ag1
(g5
S'\x1ej"8\x14\x19\x1c@'
p161
tp162
Rp163
aF9.533948943391442
aF8.103610533475875
aF-3.4
aF7.966114649176597
ag1
(g5
S'\x03\x88\xf8\xe2e6 @'
p164
tp165
Rp166
aF-3.2
aF-3.9
ag1
(g5
S'h\x15R\xff\xb7\xd4\x1f@'
p167
tp168
Rp169
aI-3
aF-5.600000000000001
aF-1.1
aF-0.8999999999999999
aF-3.6
aF-6.100000000000001
ag1
(g5
S'\x1a\x97\x04@\xf5\xa9\x19@'
p170
tp171
Rp172
aF-3.1000000000000014
aF-2.800000000000001
aF-4.5
ag1
(g5
S'\xc5,\xe6D\x0c  @'
p173
tp174
Rp175
aF-4.3
ag1
(g5
S'\x8a\xf0\x88\xb9\xe5~ @'
p176
tp177
Rp178
aF8.874502548575402
aF-3.4000000000000017
aF-4.5
aF-0.7
aF-3.1
aF-4.3
aF-4.0
aF-6.100000000000001
aF9.226822828501463
aF7.78348112264648
aF8.202206069231034
aF9.02441871985793
aI-3
aF-3.9
aF9.070556297898293
aF8.417927583679557
aF9.062440183758735
aF8.972888306714594
ag1
(g5
S'\x9c\r\xdb\xa3\xe9\x8e @'
p179
tp180
Rp181
aF8.84462773501873
ag1
(g5
S';1s\xb1>\xf1 @'
p182
tp183
Rp184
aF-4.2
aF-3.9
aF7.701996240019798
aF-4.9
ag1
(g5
S'rm\x19\x9f\xcc\x98\x19@'
p185
tp186
Rp187
aF-3.6
aF-3.8
aF-3.500000000000002
aF-4.900000000000002
aF-3.3
aF-3.6
aF8.660873004794121
aF8.924998854100703
aF8.974312725663186
aF8.700422353297473
aF6.500245922803877
aF7.445898354053497
aF-1.0
ag1
(g5
S'\xcb\x83\x01<\r\xaa\x1d@'
p188
tp189
Rp190
aF-0.8999999999999999
aF-3.6
ag1
(g5
S'\xd39\x8a\x8d\xca/ @'
p191
tp192
Rp193
ag1
(g5
S'6\x18C\xde\xb5\xc9\x18@'
p194
tp195
Rp196
aF-1.0
aF-4.800000000000001
aF-5.100000000000002
ag1
(g5
S'\x84\x04\xa0\xfbp\xef\x1d@'
p197
tp198
Rp199
aF8.967084267735482
aF9.377394957840442
ag1
(g5
S'\x84es\x92\xb7*\x1a@'
p200
tp201
Rp202
aF-3.6
aF-4.4
aF-3.6
aF8.660838788747787
aF-3.8
aF-4.0
ag1
(g5
S'Y\xe3\xd6(n\r @'
p203
tp204
Rp205
aF9.18449792265892
ag1
(g5
S'\x1a\xc41\xdc\x94\x87\x1d@'
p206
tp207
Rp208
aF8.912942558526993
aF7.936619618907571
aF8.409504583477974
aF9.0214849203825
ag1
(g5
S'\x97\x86q\xa5\xfbu\x1d@'
p209
tp210
Rp211
ag1
(g5
S'\xc5/=\rQy @'
p212
tp213
Rp214
aF-5.600000000000001
aF-5.0
aF8.921095921099186
aF-3.9
aF-4.2
aF-3.8
aF8.768831810355186
aF-1.2
aF-4.1
ag1
(g5
S'\xc0\xd2\xb9\xd5t^ @'
p215
tp216
Rp217
aF-5.000000000000001
aF8.955258392728865
ag1
(g5
S'6{h9\xd6\xaf\x1c@'
p218
tp219
Rp220
aF8.748715236783028
aF-3.7
aF7.170070744305848
aF-5.600000000000001
aF-3.3000000000000016
ag1
(g5
S"M'\xe8y\xf2\n @"
p221
tp222
Rp223
aF-3.7
ag1
(g5
S'\x8ff\x12i\x08. @'
p224
tp225
Rp226
ag1
(g5
S'\x90m\xab\xa0H$ @'
p227
tp228
Rp229
aF8.839029517769813
aF-5.4
aF5.34999086856842
aF-1.1
aF8.70552717447281
ag1
(g5
S'\xb9\x91\xf4\xfeh\xd7\x1b@'
p230
tp231
Rp232
aF9.194665975123645
aF8.938549737632275
aF-4.1
aF8.163120058178901
aF9.363897123001516
a.