(lp0
F-5.500000000000001
aF-3.1
aF-7.5
aF-3.9
aF-3.6
aF-4.9
aF-3.7
aF6.588466670271008
aF4.051589328050612
aF6.7962708353996275
aI-3
aF7.529503870010375
aF-3.4
acnumpy.core.multiarray
scalar
p1
(cnumpy
dtype
p2
(S'f8'
p3
I0
I1
tp4
Rp5
(I3
S'<'
p6
NNNI-1
I-1
I0
tp7
bS'\xc6\x8d\xf4\xc9\xfe\xf2\x18@'
p8
tp9
Rp10
aF-4.5
aF-4.5
aF6.004217254370449
aF-5.800000000000001
aF-3.7
ag1
(g5
S'v,\xafm;\x80\x0e@'
p11
tp12
Rp13
aF-5.700000000000001
aF-5.0
aF-8.399999999999999
aF-10.500000000000004
aF-5.2
aF-3.9
aF-5.4
aF-9.2
aF-5.3
aF-4.4
aF-3.9000000000000017
aF-9.2
aF-5.600000000000001
aF-5.1
aF-7.2
aF-3.8
aF5.802678701281546
ag1
(g5
S'\x04\xedZ\xd4\x82b\r@'
p14
tp15
Rp16
ag1
(g5
S'@\xe8\xd8\x83\xff8\x1b@'
p17
tp18
Rp19
aF-8.5
aF-4.1
ag1
(g5
S'\xd8\x9f\x90x\x9d\xaa\x1d@'
p20
tp21
Rp22
aF-7.400000000000001
ag1
(g5
S'L\xe9\x04\nn\xa4\x01@'
p23
tp24
Rp25
aF-5.4
aF-7.2
aF5.479802325367927
aF8.769812494516373
aF-3.2
aF-3.8
aF8.606439778208733
aF9.072610439360142
aF-3.1
aF-3.700000000000002
ag1
(g5
S'\x0f~\xec\x81\xdf\x01 @'
p26
tp27
Rp28
aF9.37520201932639
aF8.724597764015197
aF-3.6
aF-3.8
aF-3.900000000000002
aF-0.1
aF-3.4
aF8.361534768342972
aF-3.1
aF-3.1
aF8.311659067869186
aF-3.4
aF-3.4
aF8.460691048204898
aF-3.4
aF-3.3
ag1
(g5
S'2\xda\xd3\xea&j\x1c@'
p29
tp30
Rp31
aF7.967063174583018
aF-5.500000000000002
aF-3.3
aF-5.9
aF-3.3000000000000016
aF-3.8
aF-3.7
aF-3.800000000000002
aF-3.6
aF7.543971812725067
aF-3.4
aF9.02762042209506
aF8.982181577384472
ag1
(g5
S'xEBO\x14\x1f\x1f@'
p32
tp33
Rp34
aF-4.0
aF-4.7
aF-3.6
aF-4.9
aF-4.6000000000000005
aF-5.500000000000001
ag1
(g5
S'\xda\xea\xee;\xf00!@'
p35
tp36
Rp37
aF5.697595494985579
aF7.9677725836634625
aF-3.6
aF-3.3000000000000016
aF8.94939132630825
aF-4.9
aF-3.8
aF-3.6
aF-5.900000000000001
aF-3.5
aF8.722014546394348
ag1
(g5
S'X\xd6#\xf4nm @'
p38
tp39
Rp40
aF-3.9
aF9.22898987531662
ag1
(g5
S'\x82\x02\xcb]\xb8\xe8 @'
p41
tp42
Rp43
ag1
(g5
S'\xf1a_\x01\xb8\xd2 @'
p44
tp45
Rp46
aF-3.9
aF-3.4
aF-3.700000000000002
aF-3.1
aF-6.900000000000002
aF-4.2
aF9.359925579279661
aF-3.4
aF5.763000731915234
ag1
(g5
S'd\x1aw\x92)e\x1f@'
p47
tp48
Rp49
aF-3.6
aF8.138471953570843
ag1
(g5
S'\xc3q\x82;N.!@'
p50
tp51
Rp52
aF-6.300000000000002
aF-4.5
ag1
(g5
S'_%\x85M\xf6\xcb\x1e@'
p53
tp54
Rp55
aF8.64316504895687
aF-3.900000000000002
aF9.527866581827402
ag1
(g5
S'at\x84\xe4h\x8a @'
p56
tp57
Rp58
aF-4.4
aI0
aF-8.000000000000002
aF-4.6000000000000005
ag1
(g5
S'\x88$f.\x98s @'
p59
tp60
Rp61
aF-3.6
ag1
(g5
S'!\x04\xdf_\xa5F @'
p62
tp63
Rp64
aF-4.2
aF-3.5
aF8.974082189798356
aF-4.7
ag1
(g5
S'{G\xdb\x9c\xab\r\x1e@'
p65
tp66
Rp67
aF8.706745700538159
ag1
(g5
S'\xd9\xe9\x8f\x85\xee\xe0\x1e@'
p68
tp69
Rp70
aF-3.6000000000000023
aF-3.7
aF-7.100000000000001
aF-4.1
aF-3.4
aF-4.6
ag1
(g5
S'\xc2\x05\xdc`*j @'
p71
tp72
Rp73
aF-6.300000000000001
aF-4.6000000000000005
aF9.13937865793705
aF-4.3
aF-3.700000000000002
aF8.795885352790355
aF-5.600000000000001
aF8.670706111192704
aF-6.200000000000001
aF-3.6
aI0
aF-3.6
aF-3.700000000000002
ag1
(g5
S'\xa6Y\x954\xc7d @'
p74
tp75
Rp76
aF8.428176651895047
aF-3.0000000000000013
aF-5.700000000000001
aF4.828671538829802
aF-3.5
aF9.396898500621319
aF8.02769350670278
aF-3.3
aF8.460504704713822
aF-3.7
aF-3.2
aF9.123200696706771
aF-3.9000000000000026
ag1
(g5
S'\xb8\x11\xf5\xaf\x97y\x1b@'
p77
tp78
Rp79
aF-7.000000000000002
aF-3.7
aF-3.7
aF-4.1
ag1
(g5
S'\xd8v\x87\xf3\x16\xe2 @'
p80
tp81
Rp82
aF-3.8
aF-3.3
aF8.226917208731175
aF-5.300000000000001
aF-3.4
aF9.187354212999344
aF-3.4
aF-3.2
aF9.40661129951477
ag1
(g5
S'\x99ds\xf5\xc0b!@'
p83
tp84
Rp85
aF9.256457284279168
aF8.73327879011631
aF-4.5
aF-5.500000000000001
aF-4.1
aF-4.0
ag1
(g5
S'X7\xc0ox\xa2 @'
p86
tp87
Rp88
aF-3.3000000000000016
aF-4.4
aF7.6921500027179714
aF8.568485414981842
aF-4.3
aF5.180565869808196
aF9.216374444961549
aF-5.900000000000001
aF7.262404314428567
aF6.854322707653045
aF-3.4
aF9.152190485596657
aF9.140122941881419
aF8.77724336385727
aF-5.300000000000001
aF-5.0
aF-3.4
aF-4.400000000000001
aF8.827270781993866
aF-3.9
aF8.7871377825737
aF8.691603028262033
ag1
(g5
S'\x93\xc97F\x052!@'
p89
tp90
Rp91
aF-4.0
aF8.838105508685112
aF7.784383934736251
aF9.121383666992188
aF-3.2
ag1
(g5
S'\x9d\xdd\xb2\xc4p\xa9 @'
p92
tp93
Rp94
ag1
(g5
S'r\xb0\x14\x00\xda&!@'
p95
tp96
Rp97
aI0
aI-3
aF-3.3
aF-3.7
aF9.328778739646078
aF-3.5
aF8.219818434864283
aF-4.4
aF9.180227236449719
aF-5.5
aF9.274184671789408
aF-3.3
aF-3.4000000000000017
aF-4.0
aF-3.7
ag1
(g5
S'\x8c\x0c\x08z\x9bJ\x1f@'
p98
tp99
Rp100
aF-4.2
aF-3.9
aF-4.400000000000002
aF6.927520694583654
ag1
(g5
S'\x87\x02\xc8\xeb\xa3N @'
p101
tp102
Rp103
aF-3.3
aF-4.0
aF8.360590985417366
aF9.399970300495625
aF-4.5
aF-3.7
aF-4.4
aF9.276681985426695
aF-5.2
aI0
aF-4.0
aF8.100331801176072
aF-3.9
aF-7.400000000000001
ag1
(g5
S'\x9d\xa6\x8f\x85\xe0\xec\x1d@'
p104
tp105
Rp106
ag1
(g5
S'H\x91\x14\x7fn\x04!@'
p107
tp108
Rp109
aF9.580108453333377
aF-6.000000000000003
aF-3.3
aF8.832671871781349
aF8.192557127773762
aF8.556254094839096
aF7.443145814538003
aF9.212124049663544
aF-3.4
aF-3.8
aF-3.8
aF7.9606358058750635
aF-3.9
aF9.091066516609862
aF8.522857618331908
aF-5.6
aF9.68149366583675
aF6.920894297957419
aF-4.4
aF-3.7
aF9.413436587899923
aF7.229222086444496
aF-6.500000000000002
aF-4.8
aF-3.9
aF-3.4000000000000017
aF-3.7
aF-3.5
aF-3.5
aF-4.0
aF9.521354072168469
aF-3.1
aF4.698969288915394
aF9.01760157942772
aF-3.7
ag1
(g5
S'?oDl\x9e\xde @'
p110
tp111
Rp112
aF-4.1
aF8.790298259304837
ag1
(g5
S'"\xb0\x1f\xed\xdd\x18!@'
p113
tp114
Rp115
aF9.34691341817379
aF8.02715878598392
aF-4.9
aF-3.5
aF-3.2
aF-6.500000000000001
aF-5.600000000000002
ag1
(g5
S'\xac<1\x9a\x15q\x1f@'
p116
tp117
Rp118
aF-4.1
aF9.504585298150777
aF-5.400000000000003
aF-6.600000000000001
aF-3.9
aF-3.2
aF-3.3
aF-3.9
aF-4.3
aF-5.3
aF8.744660744071007
aF9.064970822446048
aF9.267361802235246
aF9.221070568263531
aF-3.8
aF9.166212879121304
aI0
aI-3
aF8.572947314381599
aF8.79669830724597
aF-4.0
aF-4.4
aF-4.900000000000002
ag1
(g5
S'}\x02\x1e1\xac\xbd\x1e@'
p119
tp120
Rp121
aF-3.4
aF-3.7
aF-4.499999999999999
aF-3.300000000000001
ag1
(g5
S'a\xa6;\x8ar\xf8\x1e@'
p122
tp123
Rp124
aF-3.4
aF-3.6000000000000014
aF-3.2000000000000015
aF8.86431630551815
aF-4.7
aF-6.500000000000002
ag1
(g5
S'A\x9d\xd8\xfd\xdfw @'
p125
tp126
Rp127
aF8.858254311978817
aF-3.9
aF-5.4
aF9.41749926880002
aF-3.4
aF-3.4
aF9.202546110749244
aF9.274065849930048
ag1
(g5
S'\xb9\x15\x04\x7f\xbc\xc0\x1d@'
p128
tp129
Rp130
ag1
(g5
S'\xcab\xda\xad\x10t\x16@'
p131
tp132
Rp133
aI0
aF-3.7
aF-3.2
aF-4.1
aF-3.1000000000000014
aF-3.3000000000000016
ag1
(g5
S'\n.g\x0c\x96\xc7\x19@'
p134
tp135
Rp136
aF-4.1
aI-3
aF-4.4
ag1
(g5
S'\x80\xa3\xeao\xae\xdc\x1d@'
p137
tp138
Rp139
aF8.367928922176361
aF9.242723656445742
aF-3.3
ag1
(g5
S'\x07H\xc1 \xae\x8c\x1d@'
p140
tp141
Rp142
aF9.376647068560123
aF-3.3
aF9.18922395259142
aF7.5703596964478495
aF-5.800000000000001
aF-4.100000000000001
aF-6.300000000000002
ag1
(g5
S'\x10Nw\x0c\x9f\xaf\x19@'
p143
tp144
Rp145
aF-4.0
aF6.293610899196937
aF-4.4
aF9.05821003317833
ag1
(g5
S'(<@Y\xd3\xa1\x19@'
p146
tp147
Rp148
aF-3.8
ag1
(g5
S'%m\xef\xbc\xf3\xfe @'
p149
tp150
Rp151
aF-3.6
aF8.691007322911172
aF9.273466320335865
ag1
(g5
S'H\x8bC%\xf4\xb9 @'
p152
tp153
Rp154
ag1
(g5
S'U\xd9\xd2\xcf\xa2\xf8 @'
p155
tp156
Rp157
aF-3.7
ag1
(g5
S' \x17\xfbk\xe3\xaf\x1a@'
p158
tp159
Rp160
aF8.861040584743023
aF-4.5
aF-5.600000000000002
aF-4.1
aF9.126303451880812
aF8.981170234084129
aF6.411519619822501
aF9.29856267720461
aF-3.5
ag1
(g5
S'J%\x13\xe6\x06\xf0 @'
p161
tp162
Rp163
aF-3.400000000000002
aF-3.1
aF-4.2
aF9.020549181103707
aF-2.600000000000001
ag1
(g5
S'\x06\x99\xd8\x98\xfc\xcc @'
p164
tp165
Rp166
aF-3.1000000000000005
aF8.910820908844471
aF8.669423985481263
aF9.19229815006256
aF-5.0
aF8.594223003089429
aF8.828276787698268
aF8.485409367084504
aF-2.400000000000001
aF-4.400000000000001
aF8.423166286945342
aF9.050471726059914
aF8.818913055956363
ag1
(g5
S'\xab\xecL1\xb42 @'
p167
tp168
Rp169
aF-4.9
aF9.293403705954551
ag1
(g5
S'\x1c\x08\x9a\xa5&\x98\x1d@'
p170
tp171
Rp172
aI0
ag1
(g5
S'g\xb8\x96;z\xff @'
p173
tp174
Rp175
aF9.340108117461204
ag1
(g5
S'\x99\xd4\xfb\x16\x9f\xdd @'
p176
tp177
Rp178
aF8.762501367926598
aF8.845868441462517
aF-3.4
aF9.407690742984414
aF8.885298562049865
ag1
(g5
S'0\xff\xa2Q;\x01\x1f@'
p179
tp180
Rp181
aF8.842512745037675
aF8.596443503303453
aF-4.0
aF-4.6
ag1
(g5
S'#\xdc~\xe6S\xe9\x1d@'
p182
tp183
Rp184
aF8.602958983182907
ag1
(g5
S'\xff_\x8f%"\xb8 @'
p185
tp186
Rp187
aF-4.800000000000001
aF8.496874061226844
aF8.866426193714142
ag1
(g5
S'\xea\xf8J\xcc\xdd\xdc @'
p188
tp189
Rp190
aF8.977864395081998
aF-4.3
ag1
(g5
S'`\xe7\x9bKo5!@'
p191
tp192
Rp193
aF-3.5
aF-4.2
ag1
(g5
S'@+\x86T9o\x1d@'
p194
tp195
Rp196
aF-3.3
aF-4.200000000000002
aF-3.6000000000000014
aF-0.1
aF9.08101374041289
aF-3.5
aF8.571410306543111
aF-4.5
aF-3.4
aF-5.4
aF-3.5
ag1
(g5
S'g2YR\x07\t @'
p197
tp198
Rp199
aF8.307101503014565
ag1
(g5
S'A\xbb>I\x1b\xa7 @'
p200
tp201
Rp202
aF8.252304375171661
aF-5.200000000000001
aF6.839894730597734
aF9.22388513982296
aF-5.400000000000002
aF8.260477801039814
ag1
(g5
S'\xd9\x15\x0c\xf4\xd9\x06!@'
p203
tp204
Rp205
aF6.798118990659713
aF-5.0
ag1
(g5
S'\xe8;j|\xac\x9a\x1a@'
p206
tp207
Rp208
ag1
(g5
S'\xee\xa3A\xe2`\x0c!@'
p209
tp210
Rp211
aF9.293698450969533
aF8.899581363797187
ag1
(g5
S'\xb4\xd7\xb7C[_ @'
p212
tp213
Rp214
ag1
(g5
S'\n\xf5")\xd4^ @'
p215
tp216
Rp217
ag1
(g5
S'Q\xeb\x88\x1bs\xfa @'
p218
tp219
Rp220
aF8.86330536454916
ag1
(g5
S'\xf84\n;\xcb\xf4 @'
p221
tp222
Rp223
aF6.887515117507427
ag1
(g5
S'\x0e\xa7\xa9I]\x0e @'
p224
tp225
Rp226
aF-6.100000000000001
aF9.370638824999332
aI-3
aF-3.4000000000000017
ag1
(g5
S'.\xd2Uc]\x1e @'
p227
tp228
Rp229
aF7.298516096174716
ag1
(g5
S'E@m\xe5&\xf7 @'
p230
tp231
Rp232
aF8.311310059949754
aF-4.0
aF-7.900000000000002
aI-3
aF9.292461596429348
aF-5.500000000000001
aF9.239911757409573
aF8.945580606162547
aF8.730620523542166
aF8.77443737089634
aF-3.3
aF-3.1
aF-6.300000000000001
aF7.384300836920739
ag1
(g5
S'\xe0\x86\xa1|\x8c(\x1a@'
p233
tp234
Rp235
ag1
(g5
S'\xde Y\xceg3!@'
p236
tp237
Rp238
aF8.628035226464272
aF9.188849124312402
ag1
(g5
S'Gs\x94\xe7)\x91\x1b@'
p239
tp240
Rp241
aF-3.1
aF9.362298618629575
aF-4.100000000000001
aF-3.4000000000000017
ag1
(g5
S'\x14\x9b\xe2C\xbd\xfa @'
p242
tp243
Rp244
ag1
(g5
S'ci:P\xfc,\x1c@'
p245
tp246
Rp247
aF8.35807053744793
aF-3.3000000000000016
aF7.402738977968692
aF8.786461673676968
aF8.069564924016595
aF-5.600000000000002
aF-3.7
aI0
aI-3
aF-3.6
aF7.332441894710064
aF-3.1000000000000014
aF9.270210146903992
aF5.154733109474181
aF-3.1000000000000014
ag1
(g5
S'096\xb39H\x1c@'
p248
tp249
Rp250
aF8.907791540026665
aF8.367357645183802
aF7.350444430112838
aF-5.3
aF-3.1000000000000014
ag1
(g5
S'\x08\x1c\xf60W\xf0 @'
p251
tp252
Rp253
aF7.8005635663867
aF-5.5
aF7.8135418482124805
aF7.973039346933365
aF8.29090408757329
aF8.389705473184586
aF8.519602435827256
aF-6.500000000000002
aF8.826335526630283
ag1
(g5
S'0xz*Fe\x1f@'
p254
tp255
Rp256
aF8.803311159461737
ag1
(g5
S'\xad\xd8ax\xef8!@'
p257
tp258
Rp259
aF-3.1000000000000014
aF8.499208476452623
aF8.825950959324837
aI0
ag1
(g5
S'\xa2\xd7\xf44c+ @'
p260
tp261
Rp262
aF9.325559155642987
aF8.26250633895397
aF-3.2000000000000015
aF7.997996433346998
ag1
(g5
S'q\xc7PY\x8a\x87 @'
p263
tp264
Rp265
ag1
(g5
S' \xbf\x93=K\xcc @'
p266
tp267
Rp268
ag1
(g5
S'\xd8\xc3\x04\xbf\xf7W @'
p269
tp270
Rp271
ag1
(g5
S'\x9d\x11O\xbdk\x87\x1b@'
p272
tp273
Rp274
ag1
(g5
S'\xe09\x17MO! @'
p275
tp276
Rp277
aF-3.3
aF7.579862534999847
ag1
(g5
S'\x0f\xa0\xbd\x8c\xf8\x8d @'
p278
tp279
Rp280
aF8.380502526462077
ag1
(g5
S'k\x92\x88"u\x92\x1c@'
p281
tp282
Rp283
ag1
(g5
S'\xe0\xaa\xadP\xc3=!@'
p284
tp285
Rp286
ag1
(g5
S'\x8b.\xda\x9f\x06\xb0\x16@'
p287
tp288
Rp289
aF-3.8
aF8.342994809150696
ag1
(g5
S'\x83V\xbd#\x01\x1c!@'
p290
tp291
Rp292
aF7.279216496646404
aF8.893137960135936
aF-3.4
aF8.598433166742325
ag1
(g5
S'\xdf>\xd3\xb3D\xfc @'
p293
tp294
Rp295
ag1
(g5
S"\xa9\xfc\x88\xc3\xcc' @"
p296
tp297
Rp298
aF-3.2000000000000015
aF9.204145433008671
aF8.074059256166219
aF9.207281628251076
aF6.9820477843284605
aF-4.999999999999999
aF8.814233937859536
aF8.015623409673571
aF8.322347429394721
aF9.383348014950752
aF9.186747535318137
ag1
(g5
S'\x99\x91\xa7/\xfc\xfa @'
p299
tp300
Rp301
ag1
(g5
S'\xf1\x03(z\x11\xb0\x1d@'
p302
tp303
Rp304
ag1
(g5
S'"\xc0\x88\xc0wD\x1c@'
p305
tp306
Rp307
a.