(lp0
F-3.9
aF-6.099999999999994
aF-7.599999999999998
aF-5.4
acnumpy.core.multiarray
scalar
p1
(cnumpy
dtype
p2
(S'f8'
p3
I0
I1
tp4
Rp5
(I3
S'<'
p6
NNNI-1
I-1
I0
tp7
bS'\xd8\xc4\x00b\xef\x8c @'
p8
tp9
Rp10
aF-6.000000000000001
ag1
(g5
S'\x8d\xd6YK<\xcb\x1d@'
p11
tp12
Rp13
ag1
(g5
S'\xb2\x8f\xfd\xca\xf6\xe0\x18@'
p14
tp15
Rp16
ag1
(g5
S'\xb4X\x15h\x0f\x13\x06@'
p17
tp18
Rp19
aF-4.800000000000001
aF-7.6
aF-5.600000000000001
aI-3
aF-3.3
aF5.162238246202468
aF-3.8
ag1
(g5
S'\xba]\x02\xb0D\xe1\x1d@'
p20
tp21
Rp22
aF-6.100000000000001
aF-6.600000000000001
aF-4.9
aF-5.6
aF-5.300000000000001
aF-3.3
aF-8.299999999999997
aF-4.3
aF-3.5
aF-4.4
aF-3.5
ag1
(g5
S'Ml._\xd8\xf3\x15@'
p23
tp24
Rp25
aF-3.3
aF-4.4
aF-3.8000143319368345
aF-5.699999999999997
aF-4.3
aI-3
aF-4.800000000000001
ag1
(g5
S'\xc8(4Q\xaa\x1d\x17@'
p26
tp27
Rp28
aF-4.300000000000001
aF-4.4
ag1
(g5
S'\xf2\xac\xa3\xb9\xb1\x1e\x03@'
p29
tp30
Rp31
aF-4.6000000000000005
aF-3.5
aF-4.0
aF-3.8
aF-5.399999999999996
aF-8.399999999999999
aF-0.9999999999999999
aF-4.999999999999998
ag1
(g5
S'\xe0\xe9\x85\xb8\x8e\xcc\x0e@'
p32
tp33
Rp34
aF-1.5000000000000002
aF-5.099999999999998
aF-3.6
aF-4.5
aF-3.6
ag1
(g5
S'\xfc\x9cN\x89\xb0\xb8\xf7?'
p35
tp36
Rp37
aF-0.9999999999999999
aF-5.5
aF-2.800000000000001
aF-3.1
aF-5.300000000000001
aF-4.1
aF-9.299999999999995
aF-4.1000000000000005
aF-6.000000000000002
aF-3.3
aF-4.9
ag1
(g5
S'6\xcb\xfb\xdb&\xd5\x16@'
p38
tp39
Rp40
aF-4.5
aF-5.0
aF-3.5000000000000018
aF-7.599999999999998
aF-5.0
aF-3.3000000000000016
ag1
(g5
S'"FLI9 \x18@'
p41
tp42
Rp43
aF-8.899999999999991
aF-3.5
aF7.554237985610962
aF-3.4000000000000017
aF-8.0
aF-3.8000000000000025
aF-6.7
aI-3
aF7.404415392875672
aF7.945040541887283
aF-4.0
aF8.37135050687939
aF-3.6
aF-3.2
aF-3.7
aF-0.7999999999999999
aF3.935808105766778
aF-3.8
aF-6.200000000000001
aF8.142392583191395
aF-3.6
aF6.905443513393402
aF8.38599943369627
ag1
(g5
S'\x0c\xa3\xe1\xde\xc7\xaf\x1d@'
p44
tp45
Rp46
aF-4.7
aF5.453858020156622
aF9.39144517481327
aF-5.4
aF-0.7999999999999999
aF-4.4
aF-3.0
aF-5.100000000000001
aF-4.0
aF1.9473125219345082
aF-3.9
aF-3.3
aF-3.9
aF-3.1
aF-3.5
aF-23.0
aF-10.899999999999995
aF-4.300000000000001
aF-3.4
aF-3.3
aF-6.299999999999992
aF-4.1
aF-6.4
aF-3.8
aF9.151416751742364
aF1.42184190750122
aF-3.7
ag1
(g5
S'\xb4\xce\x1e\xc3xh\x1b@'
p47
tp48
Rp49
aF-3.5
aF-4.0
aF-4.0
aF-7.199999999999994
aF-3.1000000000000014
aF9.328839519619942
aF-3.7
aF-3.7
aF-3.9
aF-4.1
aF-3.7
ag1
(g5
S'\xfc\xa1\x136\x9c\x96 @'
p50
tp51
Rp52
aF-4.800000000000001
aF-3.5
aF-16.700000000000006
ag1
(g5
S'<B\xa6Nr\x14\x07@'
p53
tp54
Rp55
aF-4.4
aF-4.2
ag1
(g5
S'{zU\x7f\x16( @'
p56
tp57
Rp58
aF-3.5
aF-3.5
ag1
(g5
S'\x8dmQ\x05\x01\x11 @'
p59
tp60
Rp61
aF-3.6
aF-4.3
aF-3.5
aF-0.3927444785833316
aF-3.3
aF-3.8
aF6.8867821276187895
ag1
(g5
S'\xcc\x1b\xe3\xc5\no\x06@'
p62
tp63
Rp64
aF7.477292129397392
aF-6.600000000000001
aF8.72490661367774
aF-4.0
aF-11.499999999999993
aF-4.1
aF8.975005501508713
aF-3.6
aF-3.7
ag1
(g5
S'_@\x0b]\xc3\x1c\x1e@'
p65
tp66
Rp67
aF8.894540951680392
aF9.206763884425163
aF-3.5
aF-3.5
aF-4.6000000000000005
aF9.486684101074934
aF-4.3
aF-4.800000000000001
aF-4.1
aF-3.5
aF-3.2000000000000015
aF6.833221250772476
aF-4.0
ag1
(g5
S'\x80\xa6-\xbf\xf9\x92\x1e@'
p68
tp69
Rp70
aF-3.8
aF9.144965821504593
aF-3.800000000000002
aF5.34393940269947
ag1
(g5
S'\x1b%\x7f\xe2\x80e\x13@'
p71
tp72
Rp73
aF-3.7
aF-4.0
aF-11.199999999999994
aF8.11639558672905
aF-5.500000000000001
aF-3.8
aF8.587060365080834
aF-7.999999999999997
aF9.318013425543905
ag1
(g5
S'l\xafV\x1e\x08W!@'
p74
tp75
Rp76
aF9.193037527799607
aF-3.5
aF-7.499999999999998
aF-3.6
aF6.618943852186202
aF-3.2
aF-5.700000000000001
aF-3.4
aF-3.2
aF-5.0
ag1
(g5
S'\x90Y\x80Kw2\x1f@'
p77
tp78
Rp79
aF-4.3
aF-3.7
aF-3.5
aF-4.5
aF6.672148704528809
aF-3.800000000000002
ag1
(g5
S'\x94 \xcah\xe8\xf8\x1b@'
p80
tp81
Rp82
aF-5.9
aF9.376375410705805
aF-4.7
aF9.253343968838454
aF-6.400000000000002
aF-3.4000000000000017
aF8.885360224545002
aF-7.1000000000000005
ag1
(g5
S'\xfa\x9a\xd5Y\x0eF\x1f@'
p83
tp84
Rp85
aF-3.8
ag1
(g5
S'\xfc\x91I\x04J\x80\x15@'
p86
tp87
Rp88
aF9.019183953106403
aF-3.5
aF-3.3
aF-4.9
aI-3
aF8.261246579885483
aF-3.0000000000000013
ag1
(g5
S'\xf9Q0\x93U\x93 @'
p89
tp90
Rp91
aI-3
aF9.34681995920837
aF8.537393950670957
aF7.853885044157504
aF-4.899999999999998
aF8.334424410760402
aF-6.100000000000001
aF-3.5
aF-4.4
aF4.273587709665298
aF9.412657607346773
aF-4.4
aF-0.7999999999999999
ag1
(g5
S'9\xb7P\x1a\x86\xda\x1c@'
p92
tp93
Rp94
aF-3.3
aF-3.5
aF-3.8
aF9.584901631716638
aF-1.2000000000000002
aF-3.1000000000000014
aF-3.4
aF-4.4
aF8.88784500658512
aF3.590353637933731
aF9.281414043344558
aF-3.4
aF-3.5
aF6.09402333498001
aF-4.5
aF-4.6000000000000005
aF8.377775737643242
aF-23.100000000000012
aF8.077563083171844
aF-3.9
aF-4.5
aF-5.200000000000001
aF-5.500000000000001
aF-5.0
ag1
(g5
S'\x19\x85\xfd\xd5^\xec\x11@'
p95
tp96
Rp97
aF-3.6
aF-3.9
aF-3.9
aF9.103221015632153
aF-4.2
aF-5.300000000000001
ag1
(g5
S'\x9a@lE\x8c\x9b @'
p98
tp99
Rp100
aF8.78954307846725
aF-5.500000000000001
aF-4.2
ag1
(g5
S'd\x0b\xdaV+) @'
p101
tp102
Rp103
aI-3
aF-2.9000000000000012
aF-5.0
aF8.898448964266573
aF-4.300000000000002
aF-6.7
aF-4.800000000000001
aF9.086743831634521
aF-3.9
aF-13.399999999999999
aF-4.5
aF-3.700000000000002
aF-3.6
aF-3.100000000000001
aF-5.4
aF9.224660442397
aF-3.5
aF7.99186916872859
aF-3.9
aF1.8504395894706267
aF-7.699999999999999
aF9.221996561810375
aF6.201627153158188
aF8.93114077746868
aF-4.2
aF-3.5
ag1
(g5
S'\xe1{[\xda\xcc\x82\x1c@'
p104
tp105
Rp106
aF6.174635052680969
aF-3.2
aF8.598368021845818
aF-4.1
aF-2.800000000000001
aF-8.6
ag1
(g5
S'\x8c\x1a<//\x80\x1b@'
p107
tp108
Rp109
aF7.1946689353091635
aF-3.9
aF-3.5000000000000013
aF9.478550234809518
aF6.2355572294443835
aF-3.6
aF-3.9000000000000017
aF-3.8
aF-2.800000000000001
ag1
(g5
S'\xb2\xfdv\r\xdf\xe2\x1b@'
p110
tp111
Rp112
ag1
(g5
S'@F\xf9#\x8d\xb5\x14@'
p113
tp114
Rp115
aF7.6404563903808596
aF-4.6000000000000005
aF2.9550670266151453
aF-4.0
aF-3.3
ag1
(g5
S'3\xbd\xfe\xff\xe54\r@'
p116
tp117
Rp118
aF8.990314812166616
aI-3
aF-0.9999999999999999
aF-3.1000000000000014
aF-4.6000000000000005
aF-1.4000000000000001
aF7.045805704593658
aF-3.9
aF9.19808775295969
ag1
(g5
S'\x90\x15\xbe\xbd\xf2I\x1a@'
p119
tp120
Rp121
aF9.128567951917649
aF8.349900571256876
aF-3.7
aF9.192821285873652
aF8.438507676124573
aF9.248792399838567
aF7.28435860350728
aF-6.200000000000001
aF7.662167051434516
aF9.011286076903342
aF-7.9
aI-3
aF8.590078857541084
aF9.060438999533654
ag1
(g5
S'<\x8a\xf7\x0cF\xee\x1e@'
p122
tp123
Rp124
aF8.773484056442976
aF8.419501308351755
aF8.34987981915474
ag1
(g5
S'\xba\xbe\x9f\xf29R @'
p125
tp126
Rp127
aF-3.3
ag1
(g5
S'\xf5\xe8\xd2\xea\xce\xb1\x18@'
p128
tp129
Rp130
aF-3.7
ag1
(g5
S'\xf0y\xd5\x08\x9b:\x1e@'
p131
tp132
Rp133
aF-3.2000000000000015
aF3.6694186322391094
aF7.412875941395759
aF-5.999999999999998
ag1
(g5
S'&\x94F\x92\xda\x86\x14@'
p134
tp135
Rp136
ag1
(g5
S'\xb8\t\x07\x7f\x85l\x07@'
p137
tp138
Rp139
aF-4.6000000000000005
aF7.968014717102051
aF8.872901056706905
aF7.941734043881297
aF3.02601211071015
aF-3.300000000000001
aF-3.4000000000000017
aF-4.5
aF8.63863473534584
aF-3.4
aF8.94523793682456
aF-4.0
aF9.39780815030681
aF-4.5
aF8.731275245547295
aF-3.6
aF7.854642590880394
aF-3.3
aF-3.4
aF-4.699999999999998
aF-3.1000000000000014
aF8.088205921836197
aF-2.811472729593511
aF-3.600000000000002
aF-3.3000000000000016
aF-3.5
aF0.8596510723233255
aF-4.4
aI-3
aF-2.2000000000000006
aF7.65494759529829
aF-4.4
aF-2.2000000000000006
aF-3.4
aF9.45842402279377
aF8.820442441105843
ag1
(g5
S' \xde1\x10\xdcQ\x19@'
p140
tp141
Rp142
aF-3.3
ag1
(g5
S'\xd1m\xe3<\xac\x19\x1b@'
p143
tp144
Rp145
aF8.94962860196829
aF8.399293255805969
aF-7.899999999999997
ag1
(g5
S'\xa5qy\xa5S!\x1e@'
p146
tp147
Rp148
aF-4.300000000000001
aF6.91003064662218
aF-2.7000000000000015
aF-5.199999999999997
aF6.482528571784496
aF-2.8000000000000007
aF7.04333071410656
aF9.44883500225842
aF-1.5
aF-3.2
aF-3.100000000000001
aF7.983758407831192
aF3.77788375094533
aF-3.3
aF7.019182938337326
aF8.419274044036865
aF-14.099999999999998
aF-6.6
aF8.174018320441245
aF8.278188335895539
aF8.789983415603638
ag1
(g5
S'&\x07-,\xb4r\x1d@'
p149
tp150
Rp151
aF8.467609897255898
ag1
(g5
S'\xb2"\xfdzC\x1b\x1c@'
p152
tp153
Rp154
ag1
(g5
S'\xf5I9\x10^E\x1e@'
p155
tp156
Rp157
aF8.874469646811486
aF-0.6
aF-5.1000000000000005
aF6.588084773998707
aF9.361032214015722
aF-2.400000000000001
aF-3.6
aF-4.7
aF8.80471249818802
aF8.266567233204842
aF8.318719311058521
aF8.332383954524994
aF8.483233908563852
ag1
(g5
S'\x1b\xac\xf2\xf1r\xbd\x1e@'
p158
tp159
Rp160
aI-3
aF8.369968605041503
aF8.524900221079587
aF-2.600000000000001
aF8.257869688421488
aI0
aF-3.6
aF9.160755619220435
aF6.109387743473052
aF-0.7
aF7.054400190711021
aF-2.3000000000000007
ag1
(g5
S'\x18\x1e\xc2\x11\xabH\x1e@'
p161
tp162
Rp163
aF-0.7
aF9.243671504408121
aF7.64992328621447
aF5.843512918800115
aF6.281177884340286
aF5.87557524871081
aF9.133348207175732
aF5.402871352434158
ag1
(g5
S'0\x82\x80\xa3\x0cf\x08@'
p164
tp165
Rp166
ag1
(g5
S'#\x93S]6e\x1b@'
p167
tp168
Rp169
aF8.20445075929165
aF7.977642208337784
aF7.3785750851035115
aF9.225574316084385
aF-2.500000000000001
aF-3.800000000000001
ag1
(g5
S'\x02AC\x07\x80\xc0\x1b@'
p170
tp171
Rp172
ag1
(g5
S'\xe5\x07T\x92\x81\xf0\x1b@'
p173
tp174
Rp175
aF-3.2
aI-3
aF8.17577400598675
ag1
(g5
S'\x9d\x0f\xffXi\x01\x18@'
p176
tp177
Rp178
aF9.095734226703645
aF8.795104689896107
aF9.42499677464366
aF8.086199531704187
ag1
(g5
S'\x18T\xac\x0b\xf8\x9b @'
p179
tp180
Rp181
aF-2.9000000000000012
aF9.092204643553123
aF8.233486476540566
aF-2.2000000000000006
ag1
(g5
S'\xac`26F\x809@'
p182
tp183
Rp184
aF-4.4
aI-3
aF-3.8
aF-3.9
aF8.079670667648315
aF8.177976600825787
aF9.188185043632984
aF-5.300000000000001
aF8.686982649564744
aF7.971629822254181
aF9.427937107533216
aF8.915483891963959
aF-7.699999999999995
aF-2.1000000000000005
aF-4.2
aF8.550377110391855
aF7.0622476696968075
aF8.21804731786251
aF8.329406600445509
aF7.658126280456781
aF8.639738062024117
aF7.377099949121474
aF8.176826190948486
aF6.003982086479663
aF-3.400000000000001
aF-5.500000000000002
ag1
(g5
S'\xcc0\x8fQ=\xce\x1c@'
p185
tp186
Rp187
aF9.205527843534947
ag1
(g5
S'\xd4\t\x8cO\xd1\x03\x1e@'
p188
tp189
Rp190
aF-3.2
aF8.290614359080791
ag1
(g5
S'C#;\xdc\t\xc8\x17@'
p191
tp192
Rp193
ag1
(g5
S'\x0f\xf7\x1b4\xe4:\x1f@'
p194
tp195
Rp196
aF-5.499999999999997
aF7.411885651946067
aF-3.3
aF-0.6
aF-5.700000000000001
aF-0.7
aF8.752413437888027
aF9.320058968663215
aF-4.6999999999999975
ag1
(g5
S'\xdav\x8c\xda#\xee\x1b@'
p197
tp198
Rp199
aF8.54154290407896
aF-1.1
aF9.013945017382502
aF7.277777993679046
aF-0.6
ag1
(g5
S'\x84t\xd2\xb2R\x9d @'
p200
tp201
Rp202
ag1
(g5
S'\xb2\xeeDH=\x00\x1b@'
p203
tp204
Rp205
aF-5.6000000000000005
ag1
(g5
S'\xddEB}R\xa6\x1c@'
p206
tp207
Rp208
aF9.391281569702551
ag1
(g5
S'\x13q\x1bRk\xa9\x17@'
p209
tp210
Rp211
aF-2.0
aF6.491352921724317
aF-0.6
aF-0.7
aF7.506419610977172
aF-4.3
aI0
aF-5.700000000000001
aF9.341186459735036
aF-4.2
aF-4.3
aF9.507491650432348
aF-11.499999999999998
aF6.634491723775863
aF-6.3999999999999995
ag1
(g5
S'\x7fL\xcbA\xb8\x83\x19@'
p212
tp213
Rp214
aF6.469319611787796
aF7.741408562660217
aF8.014398419857026
ag1
(g5
S'\xe7\xf3\x86\x00\xa0\x9b\x1b@'
p215
tp216
Rp217
aI-3
aF-6.2
aF7.672250950336457
aF8.932212689518929
ag1
(g5
S',\xaf\x9b\x1a\x9d\xcd\x1c@'
p218
tp219
Rp220
aF-2.2000000000000006
aF8.150622353702783
aF9.541203642636537
aF7.919775718450547
aF-14.299999999999997
aF-4.799999999999998
aF-2.3000000000000007
ag1
(g5
S'\x80\xf4{U\xa27 @'
p221
tp222
Rp223
aF-8.099999999999996
ag1
(g5
S'l3A\xc3\x88\xf2\x19@'
p224
tp225
Rp226
aF9.354366337507964
ag1
(g5
S'@\x17\xd1\x97x\x9d\x1e@'
p227
tp228
Rp229
ag1
(g5
S'\xdds\x9b\xb0\x01\x04 @'
p230
tp231
Rp232
aF8.481303249951452
aF-3.9
ag1
(g5
S'\x1a\x0cbUK\xa0\x19@'
p233
tp234
Rp235
aF-3.9
aF-3.9
aF-8.7
aF-3.1
ag1
(g5
S'>@\xab\xec\xe3\xbf\x1c@'
p236
tp237
Rp238
aF-4.5
aF9.19909885674715
ag1
(g5
S'\xea\x1f\xa0\xb7\xcc\xa2\x1f@'
p239
tp240
Rp241
aF8.915948885679246
aF-3.2
aF-3.7
aF9.199584480116027
aF-9.700000000000001
aF-6.300000000000002
aF-3.3
aF9.387984471954406
aF8.07633764706552
ag1
(g5
S'B\xe2p\x85\xfa\x01\x19@'
p242
tp243
Rp244
aF7.4010316789150234
aF9.14092564843595
aF7.97893079817295
aF5.212181958556174
aF6.9294323325157166
aF7.97263161689043
aF6.006686288118361
aF9.260079963505268
aF9.058853730559349
ag1
(g5
S'(\xa20*U{\x1c@'
p245
tp246
Rp247
aF-3.6
aF9.048603707551957
aF8.708326929807663
aF8.761030036211015
aF8.004884204268455
aF-3.1
aF9.298141799867153
aF9.249828085303307
aF8.791594836115838
aF8.879586517810822
aF0.31623152270913657
aF8.297398996353149
aF-2.9000000000000012
aF8.47142672073096
ag1
(g5
S'\x91 \x9d\x12+8\x1a@'
p248
tp249
Rp250
aF7.892228916287422
ag1
(g5
S'\xb5\xdbC\x1b\x1b\x84\x1e@'
p251
tp252
Rp253
aF8.985319885611535
aF-7.6999999999999975
ag1
(g5
S'\xd9\xcaN\x032h\x16@'
p254
tp255
Rp256
aF9.372954406403005
aF8.414757671952248
aF-3.6
aF7.313784110546112
aF8.562196791172028
ag1
(g5
S'u\x02RI1\xc6\x1c@'
p257
tp258
Rp259
aF9.241468875110149
aF-5.1000000000000005
aF-0.5
ag1
(g5
S'\x86\x11\xb62\xc8\xe6\x19@'
p260
tp261
Rp262
aF8.431523986160755
ag1
(g5
S'\x8b9\xcd\xd6\x0b\xf4\x18@'
p263
tp264
Rp265
ag1
(g5
S'\xb6\xe1\xcf\xb5x\xff @'
p266
tp267
Rp268
aF-0.7
aF-3.8
aF8.310693863034249
aF-0.7
aF-0.1
aI0
aF-0.6
ag1
(g5
S'\xc3\xa7\xd5\x80]\x10!@'
p269
tp270
Rp271
ag1
(g5
S'\xee\x85\xaa3\xfc\r @'
p272
tp273
Rp274
aF8.336063250899315
aF9.10926970988512
aF9.147786359488965
aF-2.1
aF9.148363582789898
aF-3.3
aF6.984249616414308
ag1
(g5
S'\xb5B\x08\xd7Y\xd0 @'
p275
tp276
Rp277
aF8.875769041478634
aF5.655291214585304
aF9.125698938965797
ag1
(g5
S'\x06\x1cf\xf5\xce\xfa @'
p278
tp279
Rp280
ag1
(g5
S'j\xac3X\xcb\xd8\x1f@'
p281
tp282
Rp283
aF-3.6
aF-0.7
ag1
(g5
S"\x0e'\xcc\xd4r\x19\x17@"
p284
tp285
Rp286
aF-11.699999999999998
aF9.145238093286753
aF-0.6
aF8.762671256065369
aF-0.7
ag1
(g5
S'\xdd\x10\x92\xdb\xd1/\x1f@'
p287
tp288
Rp289
aF-6.0
aF7.829559448361396
ag1
(g5
S'\xfa\x87\x19\x85\x19b @'
p290
tp291
Rp292
aF7.670720723271369
ag1
(g5
S'r\xd1~x\x18\x16!@'
p293
tp294
Rp295
aF9.16500318646431
aF-4.800000000000001
aF3.6449496507644668
aF-0.6
aF8.438849384337663
ag1
(g5
S"\x13\x98\xfe\xa2'\xfe\x1a@"
p296
tp297
Rp298
ag1
(g5
S'\xd8\xc5e\xa7K?\x05@'
p299
tp300
Rp301
aF8.001935008168221
aF-4.2
aF-0.7
aF9.28655955195427
aF7.7005396455526345
aF8.292214184999466
aF-8.8
aF8.256451094150544
aF7.246337307244539
aF6.2762067973613735
aF7.446021120250224
aF-3.3000000000000003
aF-2.900000000000001
aF8.397806468605996
aF-2.500000000000001
aF-0.7
aF-3.7
aF9.476826852653176
aF-0.6
aF-2.500000000000001
aF8.097026559710502
aF8.135238879919052
ag1
(g5
S'L\n\xc0~\xe2&\x1c@'
p302
tp303
Rp304
aF-3.400000000000001
aF3.859971764683724
aF-0.6
aF8.041265413165092
aF8.747643911838532
ag1
(g5
S'\xc3\x8fUP\xbf\xaa\x1d@'
p305
tp306
Rp307
aF-2.8000000000000007
aF-8.999999999999996
ag1
(g5
S'\xf0\xa9\xe9gY0\x1a@'
p308
tp309
Rp310
ag1
(g5
S'\x11\xa7\xfabj[!@'
p311
tp312
Rp313
aI-3
ag1
(g5
S'\xd4\xbarf\xe7$\x1e@'
p314
tp315
Rp316
aF7.937960405647754
aF-2.700000000000001
aF-3.1
aF7.930598261207342
aF9.393742810795084
aF8.080103631317616
aF8.55939196050167
aF9.694248326518572
aF-3.4
ag1
(g5
S'\xacm\x1fV\xa5m\x14@'
p317
tp318
Rp319
aF-0.7
aF-3.1
aF-2.600000000000001
aF7.592062249779701
aF8.281450413167477
ag1
(g5
S'\xc3I\xe4\x17nP @'
p320
tp321
Rp322
aF7.824338521808386
aF-3.2000000000000015
aF8.51064672768116
ag1
(g5
S'4.\xbd\xef\xf5,\x1f@'
p323
tp324
Rp325
aF-2.2000000000000006
aF8.7121975582093
ag1
(g5
S'\xdd\x01<\t\xd0w\x1d@'
p326
tp327
Rp328
aF8.647071473300457
aF-5.800000000000001
aF8.575246061384679
aF7.649294126033783
aI0
aF7.941221350431443
aF6.2095916390419
ag1
(g5
S'\x9a\xe0\\\xb9\xac\xed\x1e@'
p329
tp330
Rp331
aF8.077221363782883
aF2.0314400002360387
aF-4.1
aF-3.5
aF9.306038977205754
aF-12.2
aF7.379995957016945
aF-4.9
aF9.183457599580288
ag1
(g5
S'Q\xcd4YE\x1e @'
p332
tp333
Rp334
aF7.093030285835266
aF6.8877249047160145
aF-5.299999999999996
ag1
(g5
S'\xfazq\x90\x00X\x18@'
p335
tp336
Rp337
aF-4.800000000000001
aF7.145585691928863
aI-3
aF8.823365478217601
ag1
(g5
S'\xda(\xbb\x82>\xf1\x1d@'
p338
tp339
Rp340
aF9.132463888823986
aF-3.5
aF-3.2
aF9.31212647408247
aF8.014220884442329
aF9.107148250937461
aF-0.5
aF-5.4
ag1
(g5
S'm\n\x02 \x9d:\x1f@'
p341
tp342
Rp343
aF9.201581000536681
ag1
(g5
S'PP\xd8r\x8eU\x1e@'
p344
tp345
Rp346
aF8.385681039094925
aF5.3042867854237565
aF8.132454466819762
ag1
(g5
S'\x8a*\xaa\x9d\xd26!@'
p347
tp348
Rp349
aF9.011381216719746
ag1
(g5
S'G.B~v$\x1f@'
p350
tp351
Rp352
ag1
(g5
S'-\x11s\x92\xebm @'
p353
tp354
Rp355
a.