(lp0
F-4.548772639036169
aF-3.9
aF-4.2
aF-2.701031899452202
aF1.7009831808507485
aF-6.100000000000001
aF6.697798734903335
aF7.465003436803817
aF-5.399999999999999
aF-3.9
aF-7.200000000000001
aF-3.3
aF5.657604278624056
aF-4.6
aF-14.39999999999999
aF6.800063714385033
aF-4.2
aF-8.99999999999999
aF-6.800000000000001
aF-4.9
aF-4.1
aF3.1358788013458243
aF6.3216365516185755
acnumpy.core.multiarray
scalar
p1
(cnumpy
dtype
p2
(S'f8'
p3
I0
I1
tp4
Rp5
(I3
S'<'
p6
NNNI-1
I-1
I0
tp7
bS'\xc0\x1c\x8e.d\xcc\xe6?'
p8
tp9
Rp10
aF-4.0
aF-5.700000000000001
aF-8.799999999999995
aF-9.399999999999993
aF7.954529747366905
aF-4.0
aF-3.6
aF-5.800000000000001
aF-5.500000000000001
aF-5.500000000000001
aF8.380067244172096
aF4.05692889764905
ag1
(g5
S'\x8aU\xf16o\x89\x12@'
p11
tp12
Rp13
aF-14.499999999999993
aF-6.400000000000002
aF-9.999999999999996
aF-7.1000000000000005
aF-3.9
aF-3.4
aF-6.900000000000001
aF-3.9
aF-6.100000000000001
aF-2.6000000000000014
aF-5.0
aF-3.8
aF-3.2
aF-4.800000000000001
aF-3.4
ag1
(g5
S'1\x97C\x92\x16\x04\x1d@'
p14
tp15
Rp16
aF-4.800000000000001
aF-4.4
aF-4.6
ag1
(g5
S'\xa1\xa3\xc6\xc3\x93\xa2\x1f@'
p17
tp18
Rp19
aF-3.4
aF-3.4
aF-4.6000000000000005
aF-3.4
aF-5.700000000000001
aF-4.2
aF-2.1000000000000005
aF-2.7000000000000006
aF-3.4
aF-3.1
aF-5.0
aF-4.6000000000000005
aF-4.800000000000001
aF-5.0
aF-6.300000000000001
aF-4.8
aF-3.4
ag1
(g5
S'U<B\x96\xffR\x1c@'
p20
tp21
Rp22
ag1
(g5
S'T\x07\xd6\x1c\x114\x1f@'
p23
tp24
Rp25
aF-3.7
aI-3
aF-3.8
aF-5.9
aF-3.3
aF-2.700000000000001
ag1
(g5
S'fY\x1cN\xe3\xf2\x13@'
p26
tp27
Rp28
aF-4.5
aF-3.1
aF-3.8
aF-5.6
aF-6.000000000000001
aF-3.4
aF-4.5
aF-7.000000000000001
aF-5.5
aF-4.3
aF-4.7
aF5.119800567626953
aF7.833006903529167
aF-4.800000000000001
aF6.555008620396256
aF-4.0
ag1
(g5
S'2\xf4XX\xfe\x80\x1e@'
p29
tp30
Rp31
ag1
(g5
S'\x8f\xa6\x89\xac\xc8\x95\x1b@'
p32
tp33
Rp34
aF6.281753814220428
aF-3.2
aF-4.6000000000000005
ag1
(g5
S'\xc7)f\x96\x85\xb5\x1d@'
p35
tp36
Rp37
aF9.4900087043643
aF-3.2
aF-3.2
aF-4.5
aF-3.4
aF-4.1
aF-3.9
aF9.110274404287338
aF-3.7
aF-3.6
aF-4.800000000000001
ag1
(g5
S'd\xcf|\xdc\xac\xfd @'
p38
tp39
Rp40
aF-4.0
aF-3.9
aF-5.4
aF-3.8
aF-3.5
aF-4.1
aF-3.5
aF8.313369989395142
aF-3.2
aF-3.5
aF-5.700000000000001
aF-2.900000000000001
aF-5.700000000000001
aF-5.5
aF-3.9
aF-3.1
aF-3.8
aF-4.300000000000001
aF-3.4
aF-4.1
aF-3.8
aF9.039351707696914
aF-4.0
aF-3.3
aF-3.3
aF-3.3
aF-3.8
aF-3.2
aF-3.7
aF6.291839814186096
aF-5.0
aF-3.5
aF-5.500000000000001
aF9.444778206199407
aF-3.3
aF-4.2
ag1
(g5
S'\xab\x90\x02ea\xa6\x1f@'
p41
tp42
Rp43
aF-3.200000000000001
aF-4.300000000000001
aF-4.4
aF-4.5
aF7.914790092036128
ag1
(g5
S'\x0c\xc9s\xa6_m\x1d@'
p44
tp45
Rp46
aF-3.7
aF-3.4
aF-3.9
aF-4.6000000000000005
aF-3.1
aF4.94563856124878
aF-3.4
aF-6.1000000000000005
aF8.47060933187604
aF-4.800000000000001
ag1
(g5
S'\xd8\x15\xea\x0b\x101\x1e@'
p47
tp48
Rp49
aF-5.700000000000001
aF-3.4
aF-4.2
aF-3.3
aF-3.5
aF-4.3
ag1
(g5
S'e\xaeF\x9c\x98\xf7 @'
p50
tp51
Rp52
aF-4.4
aF-4.3
aF-2.7000000000000006
aF-3.4
ag1
(g5
S'\xf8\xa6<\x97\xd8\x19!@'
p53
tp54
Rp55
aF-4.5
aF-3.3
aF-3.8
aF-3.2
ag1
(g5
S'P\x8eo{\xd3j\x1c@'
p56
tp57
Rp58
aF-4.4
ag1
(g5
S'F#.c\r|\x1e@'
p59
tp60
Rp61
aF-5.300000000000001
aF-6.0
aF-4.2
aF-3.8
aF-3.4
ag1
(g5
S'Rnm^\x83\x04\x1e@'
p62
tp63
Rp64
aF-3.7
aF-3.4
aF-2.7000000000000006
aF-4.1
aF-4.2
aF-3.3
aF8.952988816425204
aF-3.9
aF-2.400000000000001
aF-3.7
aF-4.1
ag1
(g5
S'r\x83#\xb6\x80\x18 @'
p65
tp66
Rp67
aF8.404237055778504
aF-3.8
aF-4.1
aF-3.2
aF4.858522510528564
aF-5.0
aF-3.9
ag1
(g5
S'\x84\xee\x17\xf2(A\x1c@'
p68
tp69
Rp70
aF-4.5
aF-3.4
aF8.161906895041465
aF-4.300000000000001
aF-2.0000000000000004
aF-3.2
aF-4.4
aF9.411052210628986
aF-3.2
aF-3.7
aF-3.4
aF-3.4
aF-3.8
aF8.99541631937027
aF-3.4
ag1
(g5
S'\xc6\x06\xa4\xcb\xd9=\x1d@'
p71
tp72
Rp73
aF-3.9
aF-3.3
ag1
(g5
S'@\xe0\x92\ny\xd1\x1b@'
p74
tp75
Rp76
aF-4.9
aF-4.9
aF-3.5
aF-3.3
aF-2.4000000000000004
aF8.51329292356968
aF-3.5
aF-3.6
aF-3.4
aF-3.200000000000001
aF-3.4
aF-3.4
aF-4.2
aF-3.7
aF-3.4
aF-3.5
aF-5.4
aF-3.9
aF-5.0
aF-5.6000000000000005
aF-3.8
aF9.291775180399418
aF-3.3
aF-5.2
aF-3.000000000000001
aF-3.8
aF-4.2
aF-5.3
ag1
(g5
S'\x14\x1d\xb73\xb7(\x14@'
p77
tp78
Rp79
aF-4.0
aI-3
aF-3.3
aF-3.4
aF-3.5
aF-3.9
aF-5.800000000000001
aF-4.4
aF-3.3
aF-4.1
aF-3.8
aF8.696835508942604
aF-6.0
aF-4.1
aF-4.5
aF-3.9000000000000012
aF-2.6000000000000005
aF-3.4
aF-3.5
aF8.740085035562515
aF-3.2
aF8.647606945037841
ag1
(g5
S'\xbc8X\xf3*}\x1f@'
p80
tp81
Rp82
aF-3.3
aF-7.0
aF-4.2
aF-5.800000000000001
aF9.55706820487976
aF-4.3
aF7.452003876864909
aF-4.3
aF-3.4
aF-3.2
aF-4.2
aF7.2072328619658945
aF-3.8
aF-3.7
aF-3.4
aF-3.5
ag1
(g5
S'\xeac\xfeV\xcf\xa4\x18@'
p83
tp84
Rp85
aF-4.2
aF7.561391473561525
ag1
(g5
S'/`\x9f\xb865!@'
p86
tp87
Rp88
aF-5.5
aF-4.800000000000001
aF-3.4
aF-4.1
ag1
(g5
S'\xe2\xda\xe3\xb6\xad\xba @'
p89
tp90
Rp91
aF-3.2
aF8.60114814043045
aF-3.7
aF-5.300000000000001
aF9.504704567044973
aF-3.3
aF-3.5
aF-2.7000000000000015
ag1
(g5
S'\x86\x89\xf4kA)\x18@'
p92
tp93
Rp94
ag1
(g5
S'D\xa9}\xf5\x17\x10 @'
p95
tp96
Rp97
aF-7.699999999999999
ag1
(g5
S'\xe0w1\xaa\xf5\x8b\x1e@'
p98
tp99
Rp100
ag1
(g5
S'\x8a\xae\xb7\x1f\x1c\xce\x1e@'
p101
tp102
Rp103
aF-4.3
aF-3.9
aF8.477981641888618
aF-5.3
aF-5.300000000000001
aF7.282331213355064
aF-4.9
aF-3.8
aF-4.2
aF4.879412996768951
aF-3.2
aF9.152158953249454
aF-5.0
aF9.28279839605093
aF7.111730939149856
aF-4.5
aF-4.000000000000001
aF-5.0
aF-3.9
aF9.28278878480196
aF-3.4
aF9.023759841918945
aF-4.0
aF7.33923023045063
aF-3.5
ag1
(g5
S'1w\xcd\nE\x8b\x1f@'
p104
tp105
Rp106
aF-4.9
aF-3.8
ag1
(g5
S'*F\xbcLE\x00\x1d@'
p107
tp108
Rp109
aF-3.8
aF8.022580814361572
aF-3.5
aF-3.9
aF-3.7
aF-3.1
aF7.926818609237671
aF-3.2
ag1
(g5
S"'\xd3\xcc\xa8\x81C @"
p110
tp111
Rp112
aF8.22672529220581
aF6.192902040481567
aF-4.4
aI-3
aF-7.4
aF7.804576164484024
ag1
(g5
S'*YH;i\xdf\x1d@'
p113
tp114
Rp115
ag1
(g5
S'\x1e6]E#\x97 @'
p116
tp117
Rp118
ag1
(g5
S"U\x86R\x99\xb8' @"
p119
tp120
Rp121
aF-4.1
aF-6.000000000000002
aF-4.1
aF-6.5
aF-3.2
aF-5.900000000000001
ag1
(g5
S'\xab$\x19\xe2;\xa7 @'
p122
tp123
Rp124
aF8.492878514528275
ag1
(g5
S'b\xbe\xf7;y\xe1\x18@'
p125
tp126
Rp127
aF7.976940815150737
aF-3.6
aF-4.9
ag1
(g5
S'\x10\x97\x0f%\x1fa\x14@'
p128
tp129
Rp130
aF-3.7
aF8.167156118154526
aF7.799826623499394
aF5.763458293676376
aF-3.3
aF-3.8
ag1
(g5
S'\xcc=\xbb\xa9Y\xc0\x1b@'
p131
tp132
Rp133
aF7.031970822811125
ag1
(g5
S'd\xb2B\x1b:\xf1 @'
p134
tp135
Rp136
aF-3.6
ag1
(g5
S'\xba\xdb\x92{k\xc9\x12@'
p137
tp138
Rp139
aF-3.4
aF6.8181312590837475
aF-3.4
aF-4.3
aF-5.700000000000001
aF-4.0
aF-3.3
aF-3.4
aI-3
aF-3.4
ag1
(g5
S'DE\xc0\xb95@\x1f@'
p140
tp141
Rp142
ag1
(g5
S' \x0e\x19\x9cq\x86 @'
p143
tp144
Rp145
aF-4.1
aF-3.4000000000000012
aF-6.5
aF-3.3
aF-4.300000000000001
ag1
(g5
S'\x94\x0e\x11Z\xeb\\\x1c@'
p146
tp147
Rp148
aF-4.6
aF-3.7
aF9.61872164607048
aF-3.3
aF-3.1
aF-4.1
aF-4.2
aF-3.1
aF-1.8000000000000005
aF7.7406153455376625
aF5.144310289621353
aF7.928403425216675
aF8.190764680504799
aF-5.700000000000001
aF-3.5
aF9.129303715005516
aF-3.6
aF8.5687779545784
ag1
(g5
S'\xf5%~\xb9\xd4\xf2\x1e@'
p149
tp150
Rp151
aF-4.4
aF-4.5
aF-4.4
ag1
(g5
S'\xf1\x817d\x9a=\x1d@'
p152
tp153
Rp154
ag1
(g5
S'\x10S\xe2\xd3\xb5g\x1a@'
p155
tp156
Rp157
aF-3.9000000000000017
aF-4.0
aF-4.4
aF-2.9000000000000012
aF-3.5
aF-3.7
aF-3.000000000000001
aF-6.6000000000000005
aF-3.100000000000001
aF-4.3
aF-3.8
aF-5.900000000000001
ag1
(g5
S'\xec\xef\x9a\xb8\x07y\x1f@'
p158
tp159
Rp160
aF-5.399999999999997
aF-6.300000000000001
aF-3.8
aF-4.300000000000001
aF-7.4
aF9.021847108006478
aF-6.200000000000001
ag1
(g5
S'A\xc2\x15\xd4h\x9b\x1f@'
p161
tp162
Rp163
aF-5.4
aF-5.200000000000001
aF6.320194196701049
aF-2.1000000000000005
aF-5.5
aF7.600584761053323
aF-3.4
aF8.447217719629407
ag1
(g5
S'n\x1a$\x95\x9c\x90\x1d@'
p164
tp165
Rp166
aF6.282988327741622
aF-3.5
aF-3.4
ag1
(g5
S'\xd8\xa5\xf7\x9dA8\x1d@'
p167
tp168
Rp169
aF6.3662276566028595
aF-3.400000000000001
aF-4.5
aF-4.3
aF-4.300000000000001
aF-4.899999999999999
aF-3.7
aF7.472886881232261
aF9.130857446789742
aF7.858479779213667
aF-2.3000000000000003
aF-3.8
aF-4.3
aF-3.8
aF-5.1000000000000005
aF5.760846155881881
aF-3.7
ag1
(g5
S'\xde\x03HE|\xd5\x1e@'
p170
tp171
Rp172
aF7.219746865332126
aF-5.0
aF-5.300000000000001
aF-4.0
ag1
(g5
S'J>\xa74\xecT\x1c@'
p173
tp174
Rp175
aF-3.2000000000000006
aF-3.6
ag1
(g5
S'\xd8\x1a\x05\x96I\xc3\x19@'
p176
tp177
Rp178
aF-3.7
aF-3.8
aF-3.7
aF6.079426050186157
aF-4.2
aF-3.8
aF7.406874876469374
aF-3.7
aF-4.4
aF-4.5
aF-5.0
aF7.717886826395988
aI-3
aF8.049540580809115
aF-3.3
aF-3.7
aF-3.5
aF7.212344998121262
aF6.360198700428009
aF-4.4
aF-6.000000000000001
aF-4.3
aF7.221514172852039
ag1
(g5
S'\xbc!U\xb0\x86| @'
p179
tp180
Rp181
aF-3.2
ag1
(g5
S' (\xfa\xcc:\t\x1d@'
p182
tp183
Rp184
aF-3.100000000000001
aF-4.5
aF7.821943990886211
aF-5.6000000000000005
aF7.795312030613422
aF7.11650397889316
aF-3.2
aF-4.2
aF8.609804357588292
aF-5.300000000000001
aF9.214591709524393
aF5.767365562915802
ag1
(g5
S'Ey\x1b\xab\xa9\x0e\x16@'
p185
tp186
Rp187
aI-3
aF-4.3999999999999995
aF-5.000000000000001
aF-5.4
aF-4.9
aF-6.1000000000000005
aF-3.8
ag1
(g5
S'\xc6\xbb\x07o\xce\xa8\x1f@'
p188
tp189
Rp190
aF7.7683064341545105
aF-3.1
aF-2.1000000000000005
aF-10.399999999999995
aF5.261821326613427
aF-3.6
aF-3.6
aF-4.5
aI-3
aF-3.700000000000001
aF7.457571219652891
aF-2.5000000000000004
aF-3.1
aF-4.1
ag1
(g5
S'J\xa1\x9a\xc8z\xe0\x14@'
p191
tp192
Rp193
aF6.994617676734924
aF-4.3
aF-2.2
aF-2.0
ag1
(g5
S'8\xe3"\xca\x88\xb3\x12@'
p194
tp195
Rp196
aF-4.4
aF-2.1000000000000005
aF-3.4
aI-3
aF-3.9
ag1
(g5
S'\x16:\xd2\xb8P\xfd\x15@'
p197
tp198
Rp199
aF-7.6
ag1
(g5
S'\xc0J_\xbf\xf2\x1e\x1a@'
p200
tp201
Rp202
aF-3.8
aF-2.2000000000000006
aF-3.2
ag1
(g5
S'\xf8U\xa3E\xd4\x80\x1c@'
p203
tp204
Rp205
aF-4.0
aF-1.3
ag1
(g5
S'0A\x9a_7x\x1d@'
p206
tp207
Rp208
aF-4.100000000000001
aF-2.3000000000000003
aF-3.3000000000000007
aF-4.2
aF-5.300000000000001
aF-1.6000000000000005
aF-1.3
ag1
(g5
S'\xa5e\xb2\xe8\x06\xb6\x18@'
p209
tp210
Rp211
aF-1.7
aF-4.3
aF-4.1
aF-4.2
ag1
(g5
S'5r.\x04\xfb\xaf\x19@'
p212
tp213
Rp214
aF7.840412519872189
aF-3.2
aF-3.9
aF7.4639493031427255
ag1
(g5
S'\\&^D\xc0\x14\x1f@'
p215
tp216
Rp217
aF6.49051244854927
aF3.9036546334624305
a.