(lp0
F-4.1
aF-3.6
aF-3.3
acnumpy.core.multiarray
scalar
p1
(cnumpy
dtype
p2
(S'f8'
p3
I0
I1
tp4
Rp5
(I3
S'<'
p6
NNNI-1
I-1
I0
tp7
bS'\x98u\x9ey\xfc]\x1d@'
p8
tp9
Rp10
aF-3.9
aF-6.999999999999991
aF-5.899999999999995
aF-3.1
aF-6.100000000000001
aF-4.1
aF5.805552381277082
aF7.342946944385766
aF-4.3
aF5.513553795218467
aF8.279042232036591
aF-5.0
aF-4.4
aF8.257834367454052
aF-3.7
aF-4.800000000000001
aF8.078949393332005
aF-3.7
aF-6.100000000000001
aF-3.7
aF7.78257999420166
ag1
(g5
S'\xd8\xf4\t\xe1kt\x1f@'
p11
tp12
Rp13
aF7.9235752582550045
aF5.3340565174818035
aF-4.2
ag1
(g5
S'\xb4\xe5\x83\x9ez\x7f\x18@'
p14
tp15
Rp16
aF7.899561041593551
ag1
(g5
S'\xb8\xc4\xac\x95\x08.\x1b@'
p17
tp18
Rp19
aF7.931787034869194
aF-5.4999999999999964
aF-4.7
aF-5.200000000000001
aF-4.0
aF-3.4
aF-4.1
ag1
(g5
S'\xce\xfbr<\x1d\x88 @'
p20
tp21
Rp22
aF8.400838263332844
aF-3.7
aF8.179684492945672
aF-4.999999999999998
aF8.046224063634872
aF-3.5
aF-6.099999999999994
aF-3.6
aF-4.2
aF8.11228421330452
aF-4.3
aF-4.6
aF-3.8
aF-2.400000000000001
aF7.945221239328385
aF-4.4
aF-3.7
aF-3.7
aF8.641699624061584
aF-2.400000000000001
aF-3.6
aF7.423730900883674
aF-3.7
aF-3.2
aF-3.5
ag1
(g5
S'\x12\xd9J\xd2d\\\x1b@'
p23
tp24
Rp25
aF-4.1
aF7.992948675155639
aF-3.7
aF-3.6
aF-3.2
aF-3.5
aF-2.2000000000000006
aF-3.9
aF-4.2
aF-2.1000000000000005
aF-2.3000000000000007
aF-3.8
aI-3
aF-3.7
aF-5.0
aF-3.8
aF9.237142392992974
aF-2.2000000000000006
ag1
(g5
S'\xdf6j\xe1\x11! @'
p26
tp27
Rp28
ag1
(g5
S'\xdc\x8c\xcd\xd5\xdai @'
p29
tp30
Rp31
aF-1.8000000000000005
aF-1.6000000000000003
ag1
(g5
S'\xaeW\xab\xc0\x0f\xbf\x1c@'
p32
tp33
Rp34
aF-3.6
aF-4.6000000000000005
aF-3.5
aF-3.5
aF-3.3
aF-5.500000000000001
aF-4.4
aF-2.400000000000001
aF-2.600000000000001
aI-3
aF-3.5
ag1
(g5
S'\xa9\xfd\xc0\xa1\xf1\xea\x1a@'
p35
tp36
Rp37
aF-1.4000000000000001
aF-5.300000000000001
aF-1.5000000000000002
aF7.903482222557068
aF-4.6000000000000005
aF-3.7
ag1
(g5
S'\xc1\xfbb\x0f\xd0N @'
p38
tp39
Rp40
aF-4.800000000000001
aF-3.5
aF-3.7
aF-2.400000000000001
aF-4.1
aF-3.6
aF-4.7
aF-4.4
aF-3.4
aF-3.2
aF-2.600000000000001
aF-1.6000000000000003
aF-3.5
aF-3.2
aF-3.2
aF-3.1
aF-3.8
aF-3.4
aF-3.9
aF-3.4
aF-3.2
aF-3.7
aF-3.4
aF-3.8
aF-3.1
aF-3.4
aF-3.3
aF-4.5
aF-3.2
aF-4.9
aF-3.3
aF-4.1
aF-2.2000000000000006
aF-3.5
aF-4.1
aF-4.4
aF-4.1
aF-2.2000000000000006
aF-4.4
aF-4.0
aF-5.0
ag1
(g5
S'M \xa2\x1e\xebO\x1f@'
p41
tp42
Rp43
aF-2.500000000000001
ag1
(g5
S'\xc1\xea\x98\xee\xd5\xb2\x1e@'
p44
tp45
Rp46
ag1
(g5
S'\x92b\x968\xd1\xc3\x1d@'
p47
tp48
Rp49
ag1
(g5
S'\xe9<\xf8\xff\x07S\x1b@'
p50
tp51
Rp52
aF-4.1
aF-3.5
aF-3.1
aF-3.3
aF-3.9
aF-3.3
ag1
(g5
S'\x88\xd0b\xa1\x90\x04 @'
p53
tp54
Rp55
aF-3.5
aF-3.4
aF-3.3
aF-4.7
aF8.917860999703407
aF-4.3
aF-3.2
ag1
(g5
S'\xdc\x1b3\xa2d\x10 @'
p56
tp57
Rp58
ag1
(g5
S'\x9aT,\xec\x1dA\x1b@'
p59
tp60
Rp61
aF8.68437489271164
aF-4.2
aF-3.3
aF-4.3
aF-3.6
aF-4.6000000000000005
aF-5.200000000000001
aF-3.2
aF-3.9
aF-3.2
ag1
(g5
S'\xad\xd7\x9d\x03\x08\xae @'
p62
tp63
Rp64
aF-3.6
aF-3.4
aF-2.2000000000000006
aF-1.8000000000000005
aF-3.4
aF-3.2
aF-3.1
aF-4.5
aF-3.6
aF-3.1
aF-3.3
aF4.7706136226654055
aF-4.3
ag1
(g5
S'^=\xd9\x8eX\xd6\x1b@'
p65
tp66
Rp67
aF9.563327927887439
aF-3.4
aF-3.5
aF-3.5
aF-3.4
ag1
(g5
S'`\xbb\xa4\x05;\xfa\x1b@'
p68
tp69
Rp70
aI-3
aF-4.1
ag1
(g5
S'Nn>\xcc\x8e` @'
p71
tp72
Rp73
aF-3.7
aF-4.5
aF-4.2
aF-2.0000000000000004
aF-2.400000000000001
ag1
(g5
S'\xf9Gj\x8c\x91\xd5\x1e@'
p74
tp75
Rp76
aF-3.7
aF-3.3
aF-3.2
ag1
(g5
S'j*H\xa5\x80%\x1f@'
p77
tp78
Rp79
aF-3.3
aF-2.400000000000001
aF-3.2
aF-4.3
aF-4.4
aF6.116575515270233
aF-3.4
aF-3.2
aF-5.200000000000001
aF-4.4
aF6.218237709999085
aF-3.8
aF-1.8000000000000005
aF-4.5
aF-4.3
aF-3.2
aF-3.8
aF-3.5
aF-4.3
aF-3.4
aF-3.5
aF-4.3
ag1
(g5
S'V&\x94\x12-\xaf\x1f@'
p80
tp81
Rp82
aF-2.500000000000001
aF9.069048510491848
aF-3.9
aF-1.6000000000000003
aF-3.9
aF-3.9
aF-3.5
aF-4.0
aF-3.1
aF-3.3
aF-3.5
aF8.322676235437394
aI-3
aF-3.9
aF-3.7
aF-3.8
aF-3.7
aF-3.5
aF-3.1
aF3.325119376182556
aF9.254999154806137
aF-3.7
ag1
(g5
S'\xa3\x81\x93y\xb0\x19\x1c@'
p83
tp84
Rp85
aF-4.1
aF-2.3000000000000007
aF-3.6
aF-3.3
ag1
(g5
S'\xed\xef\xc8\xd4Y}\x1f@'
p86
tp87
Rp88
aF-3.2
aF-3.6
aF-4.1
aF-4.0
aF-3.7
aF-2.3000000000000007
aF-3.5
ag1
(g5
S'\x0c\xae\xe9\xab\xc0;\x1d@'
p89
tp90
Rp91
aF-4.0
aF-3.3
aF-3.5
ag1
(g5
S"+'\xaeb\xc4\xbe\x1e@"
p92
tp93
Rp94
aF-1.4000000000000001
ag1
(g5
S'\x80bU$R<*@'
p95
tp96
Rp97
aF-3.3
aI-3
aF-3.4
aF-3.2
ag1
(g5
S'\xb6\xf9;`\xb2\xf1\x1d@'
p98
tp99
Rp100
aF-3.5
aF-3.3
aF-2.1000000000000005
aF-1.5000000000000002
aF-3.8
aF-3.5
ag1
(g5
S'\xaa\x14\xffE\xc5\xdb\x1f@'
p101
tp102
Rp103
aF-3.4
aF8.38338087797165
ag1
(g5
S'F\x80\x9a\x93\x9f@\x1e@'
p104
tp105
Rp106
aF-3.9
aF-4.3
aF-3.6
aF-3.6
aF-3.7
aI-3
ag1
(g5
S'\xed\xddRY\xbeW!@'
p107
tp108
Rp109
aF-4.2
ag1
(g5
S'\xcd=\x1dVl\xb5 @'
p110
tp111
Rp112
aF8.129916161298752
aF-4.9
aF-3.1
aF-3.4
aF-3.4
aF-3.3
aF-4.5
aF-3.4
aF-2.1000000000000005
aF-3.1
aF-4.3
aF-2.600000000000001
ag1
(g5
S'\x08i\xc2\x9c\x1ef @'
p113
tp114
Rp115
aF-3.4
aF-3.8
aF-3.4
aF-2.2000000000000006
aF-3.5
aF-3.6
aF7.695240247249603
ag1
(g5
S'\xffX\xc3\xa6F\xbe\x1e@'
p116
tp117
Rp118
aF-3.7
aF-4.3
aF-3.7
aF-2.2000000000000006
ag1
(g5
S'Af\x11w\xba\x11 @'
p119
tp120
Rp121
aF8.462751398980618
aF-3.9
aF-4.6000000000000005
aF-3.5
aF-3.2
aF-2.1000000000000005
aF-4.1
aF4.912936091423035
aF-2.0000000000000004
ag1
(g5
S'p\xcc\xc0\xffkN\x1c@'
p122
tp123
Rp124
aF-3.6
aF-3.6
aF-3.4
aF-4.4
aF8.858282515406609
aF9.3295475281775
aF7.23775714635849
aF-4.1
aF-3.5
aF-3.2
aF-3.3
aF-4.4
aF-4.4
aF-3.8
aF-3.4
aF-5.200000000000001
aF-4.2
aF-3.5
ag1
(g5
S'\x0e\xfd\x9d\r\xf3\x86 @'
p125
tp126
Rp127
aF-3.2
aF-2.1000000000000005
aF-1.4000000000000001
ag1
(g5
S'\xdc\xf2]\xa51X\x1c@'
p128
tp129
Rp130
ag1
(g5
S'7\xb5\rt\x8cR @'
p131
tp132
Rp133
aF-3.3
aF-3.3
aF-3.4
aF-2.3000000000000007
aF-4.3
aF-3.5
aF-3.6
aF-5.0
aF-3.9
ag1
(g5
S'\xcah\xebprv\x1e@'
p134
tp135
Rp136
aF-2.800000000000001
aF-4.0
aF-3.3
aF-2.1000000000000005
aF-4.2
ag1
(g5
S'\xe7\xcb\xa7E\xa6\x0f\x1f@'
p137
tp138
Rp139
aF-3.1
aF-4.1
aF-3.4
aF-5.0
aF-4.0
aF-3.1
aF-3.7
aF-4.7
aF-4.800000000000001
aF-3.4
aF-3.6
aF-3.7
aF-3.7
aF-3.9
aF-1.4000000000000001
aF-4.2
aF-3.1
aF-4.0
aF8.487395601347089
ag1
(g5
S'\x91OX\x7f?\x0f @'
p140
tp141
Rp142
aF-5.1000000000000005
aF-3.7
aF-3.8
aF-4.2
aF-4.1
aF-4.7
aF-3.4
aF-3.7
ag1
(g5
S'Y5\xca\x0f\xd2\x0c @'
p143
tp144
Rp145
ag1
(g5
S'\xf9\xa6K\x9f\xd8\xe0\x1c@'
p146
tp147
Rp148
ag1
(g5
S'\x86/(\xecVA @'
p149
tp150
Rp151
aF-2.800000000000001
aF-3.9
aF-3.2
aF-3.7
aF-3.5
aF-4.2
aF-1.6000000000000003
aF-4.6000000000000005
ag1
(g5
S'Ik\x94\xc4o\x8b @'
p152
tp153
Rp154
aF-3.7
aF-5.300000000000001
aF-4.4
aF-3.2
aF-4.3
aF-3.6
aF-3.3
aF-1.9000000000000006
aF8.180505818128585
aF-3.5
aF-3.4
ag1
(g5
S'J\xaa\xe0\x83\xe3\xda @'
p155
tp156
Rp157
aF-3.8
aF-3.5
aF-3.9
aF-3.9
aF-4.1
aF-3.9
aF-1.5000000000000002
ag1
(g5
S'\x1b\xd8\x9e\x8a\xce\xa6\x1d@'
p158
tp159
Rp160
aF-2.1000000000000005
aF-1.5000000000000002
aF-3.7
aF-2.2000000000000006
aF-3.1
aF6.236708533763886
aF-5.300000000000001
aF-4.9
aF-3.3
ag1
(g5
S'`o\xad\xe3\x0f\x7f @'
p161
tp162
Rp163
aF-3.5
aF-3.4
aF-3.3
aF-4.2
ag1
(g5
S'\xdc\x83\x06`\xd0\x8e\x1e@'
p164
tp165
Rp166
aF-3.2
ag1
(g5
S'\nSaX?W\x1a@'
p167
tp168
Rp169
ag1
(g5
S'\xa5 t\xcc`; @'
p170
tp171
Rp172
aF-4.0
aF-3.4
aF-4.0
aF-4.0
aF-3.7
aF-3.6
ag1
(g5
S'7j\x12\xd5[)\x1c@'
p173
tp174
Rp175
ag1
(g5
S'\x00\xbf\x93\xa5\x1e\x15\x1f@'
p176
tp177
Rp178
aF-3.4
aF-3.6
aF-3.4
aF-3.5
aF-4.4
aF-3.6
ag1
(g5
S'`\x1d\xf2\xff\x06\xb3\x1f@'
p179
tp180
Rp181
aF-3.7
aF-3.6
aF-3.4
aF-3.2
aF-3.5
ag1
(g5
S'\xce\x86\xc6\x8ffY\x1e@'
p182
tp183
Rp184
aF-3.6
aF-3.2
aF-3.2
aF-3.3
aF-2.2000000000000006
aF-3.1
ag1
(g5
S'l\xeb\t\x9aS8!@'
p185
tp186
Rp187
aI-3
aF-4.5
aF-4.1
aF-3.8
aF-3.5
aF-3.3
aF-2.2000000000000006
aF-3.4
aF-3.1
aF-3.2
aF-2.2000000000000006
aF-4.5
aF-3.1
aF-2.3000000000000007
ag1
(g5
S'Q\xfb\xb7\xf9\xf1B @'
p188
tp189
Rp190
aF-3.6
aF-3.1
aF-4.6000000000000005
aF-3.5
aF-2.400000000000001
aF-3.3
aF-3.9
aF7.177703642845154
aF-3.8
ag1
(g5
S'\x03\x1cz\xe59\x00 @'
p191
tp192
Rp193
aI-3
ag1
(g5
S'\x07\xb5\xbc\x83)\xd9 @'
p194
tp195
Rp196
aF-4.5
aF-3.5
aF-3.3
aF-3.8
aF-3.4
aF-3.3
aF-3.1
aF-5.1000000000000005
aF-3.3
aF7.592562046647071
ag1
(g5
S'\x8a\xc3\x1cF\x96\xc6 @'
p197
tp198
Rp199
aF-4.6000000000000005
aF-3.4
aF-3.3
aF-3.3
aF-5.0
aF-1.6000000000000003
aF-4.0
aF-3.4
ag1
(g5
S'fh\x9305\xa8 @'
p200
tp201
Rp202
aF-4.0
aF-1.5000000000000002
ag1
(g5
S'\x91\xb7\xceU\x89\xe7\x1c@'
p203
tp204
Rp205
aF-3.6
aF-3.5
aF-3.5
aF-4.0
aF8.64339005947113
aF-2.600000000000001
aF9.192548724170774
aF-2.400000000000001
aF-3.8
aF-3.7
aF-5.1000000000000005
aF7.782502317428589
aF-3.5
aF-3.3
aF-3.7
aF-4.1
aF-3.8
aF-3.1
aF-4.7
aF-3.4
aF-3.1
aF-3.2
aF-4.800000000000001
aF7.92634471654892
aF-3.3
aI-3
aF-3.3
aF-5.4
aF-3.8
aF-5.200000000000001
aF-3.5
aF-3.8
aF-1.6000000000000003
ag1
(g5
S'\xa9\x1b\xdf\x87\xc1\xd2\x1b@'
p206
tp207
Rp208
aF7.077980875968933
aF-5.1000000000000005
aI0
aF-4.5
aF-3.7
aF-3.2
aF4.902017569541931
aF-4.6000000000000005
ag1
(g5
S'\x85,\t\xea\xc2\x0e @'
p209
tp210
Rp211
aF-4.5
aF-3.7
aF8.914619505405426
aF-3.4
aF-2.400000000000001
aF-5.4
aF7.13799751996994
aF-4.3
aF-4.4
aF-3.4
aF-4.1
aF-3.2
ag1
(g5
S')\x81\xdez\xc4\xbc @'
p212
tp213
Rp214
aF-3.8
aF-3.7
aF-3.4
aF-3.6
aF-3.8
aF-3.2
aF-3.5
aF-3.9
aF8.388533714413644
a.