(lp0
F-5.0
aF-4.1
aF-7.699999999999999
aF-6.8000000000000025
aF-8.299999999999997
aF-8.699999999999996
aF-4.0
acnumpy.core.multiarray
scalar
p1
(cnumpy
dtype
p2
(S'f8'
p3
I0
I1
tp4
Rp5
(I3
S'<'
p6
NNNI-1
I-1
I0
tp7
bS'^\xeb$\xbe]\xfa\x1f@'
p8
tp9
Rp10
aF-3.3
aF-5.1999999999999975
aF3.876295302063232
aF-8.299999999999986
aF-6.199999999999994
aF5.92641697525978
aF-8.199999999999998
aF7.514635908603668
aF-4.3
aF-3.5
aF4.376555579900742
aF2.0848400056362255
aF-3.4
aF-4.9
aF-3.1
aF-5.700000000000001
aF4.773267044126989
aF-5.4
aF-4.0
aF-3.3
aF-3.8
ag1
(g5
S'=\x8f\x0ba\x9b\x8d\x1d@'
p11
tp12
Rp13
aF-4.0
aF7.48353870511055
aF-3.2
aF-9.099999999999994
aF-4.4
aF-3.0000000000000013
aF-4.9
aF-3.7
aF-3.1
aF-3.9
aF-3.6
aF-3.9
aF-3.5
aF-4.3
aF-5.200000000000001
aF-4.7
ag1
(g5
S'~#\x04 \tQ\x1e@'
p14
tp15
Rp16
aF-4.1
aF-4.0
aF-3.5
aF-3.5
aF-3.4
aF-4.5
aF-3.6
ag1
(g5
S'aK\xf1\xea0\x1d @'
p17
tp18
Rp19
aF-3.8
ag1
(g5
S'\xdeS\xecO\xf77\x1d@'
p20
tp21
Rp22
aF-4.0
aF-3.2
aF-3.8
aF-4.7
aF-4.3
aF-3.4
aF-3.7
aF-3.6
aF7.995092296600341
aF-3.4
aF-3.8
aF-3.8
aF-4.1
aF-4.3
ag1
(g5
S'\xcb\x9ePE\xb3m\x1d@'
p23
tp24
Rp25
aF-3.3
aF8.586755639314651
aF-3.2
aF-3.8
aF-3.4
ag1
(g5
S'<J\xbed\xb4\xfa @'
p26
tp27
Rp28
aF-3.4
ag1
(g5
S'LG\xda\xcfq\xbc\x1a@'
p29
tp30
Rp31
ag1
(g5
S'R\xf9\x0b \x83\xe6\x1d@'
p32
tp33
Rp34
aF-3.1
aF9.68496006336063
aF-3.5
aF-3.3
aF-4.7
aF-5.0
aF8.451435169577598
aF-3.5
aF-4.7
aF-3.8
aF8.537950745224952
ag1
(g5
S'\x96\xb2\xf1\xf1\x02\x89\x1f@'
p35
tp36
Rp37
aF-4.800000000000001
aF1.8640318870544432
aF-3.3
aF-3.2
aF-3.5
ag1
(g5
S'\x1a\x9ft\xd5W\x83\x1b@'
p38
tp39
Rp40
aF1.6934385299682613
aF-3.2
aF-3.4
aF-3.6
aF-3.7
aF-3.5
ag1
(g5
S'\xe3\xab;X\xb5_ @'
p41
tp42
Rp43
aF-3.6
aF-3.3
aF-3.5
aF-3.4
aF-4.3
aF-4.5
aF-4.4
aF8.918207150697707
aF-3.5
aF-3.8
aF-3.4
aF-2.0000000000000004
aF-3.1
aF-3.9
aF-3.2
ag1
(g5
S'\xad\xfe\x8d\xa89<\x1f@'
p44
tp45
Rp46
ag1
(g5
S'\xb31\x18\xb3\x7fT @'
p47
tp48
Rp49
aF-3.3
ag1
(g5
S'\xf6q\xa4d\xd7s @'
p50
tp51
Rp52
aF-3.5
aF-3.4
aF-3.2
aF-3.6
aF-3.5
aF-4.800000000000001
aF-3.1
ag1
(g5
S'\x9d\xb3\xe8Q\xaf\xe6\x1e@'
p53
tp54
Rp55
aF7.7808514595031735
ag1
(g5
S'\xfe\xb3\x886\xf4\x18\x1e@'
p56
tp57
Rp58
aF-3.3
aI-3
aF-3.4
ag1
(g5
S'\xfa5\xb0\xa3\x97\x99 @'
p59
tp60
Rp61
aF-3.5
aF-3.8
aF-3.6
aF-3.6
ag1
(g5
S'\x89DE5\x06v @'
p62
tp63
Rp64
aF-4.0
aF-4.7
aF-3.5
aF-5.500000000000001
aF-3.7
ag1
(g5
S'\x88\x12\x1d\xa8\xa5} @'
p65
tp66
Rp67
ag1
(g5
S'\xee\x1c\xc6\xd7\x9fc\x1f@'
p68
tp69
Rp70
aF-4.1
aF-4.1
aF-3.7
aF-3.2
aF-3.4
ag1
(g5
S'\xee\xc4%\x02\x06=!@'
p71
tp72
Rp73
aF-3.1
aF-3.9
ag1
(g5
S'\xc8\x8a+6\x80\xf7\x1e@'
p74
tp75
Rp76
aF-3.3
ag1
(g5
S'.7\xfd\x1cu\xd3 @'
p77
tp78
Rp79
aF-3.1
aF-3.6
aF-3.5
aF-3.4
aF9.685717612784355
aF-3.2
ag1
(g5
S'\x93\n\x11\xfcz\x84\x1d@'
p80
tp81
Rp82
aF-3.4
aF-3.3
aF-4.7
aF-3.7
ag1
(g5
S'Z\xa5mo\x86\xb9\x1b@'
p83
tp84
Rp85
aF-3.8
aF-2.3000000000000007
aF-3.8
aF-3.6
aF-3.6
aF7.699091064929962
aF-3.7
aF-3.4
aF9.132878462970258
aF8.464499692432582
aF-3.3
aF-4.5
aI-3
aF-3.6
aF-3.9
ag1
(g5
S'\x08nJn\x8cq @'
p86
tp87
Rp88
aF-3.3
ag1
(g5
S'\xa2\x03{\xa2\xbb.\x1a@'
p89
tp90
Rp91
aF8.768146684020758
aF-4.0
aF-3.7
aF-4.2
aF-3.4
aF-3.5
aF-3.2
aF-4.4
aF-3.4
aF-3.5
ag1
(g5
S'x)\x85I\xea\xa4 @'
p92
tp93
Rp94
aF-3.7
aI-3
aF-3.3
aF-3.2
aF-3.6
aF-3.8
aF8.480038370192052
aF-3.8
aF-4.7
aF-3.2
aF-3.4
aF-4.0
aI-3
ag1
(g5
S'\xd5\xc9\xab<%\x8f!@'
p95
tp96
Rp97
ag1
(g5
S'\x8b(\x8f}[\x94 @'
p98
tp99
Rp100
aF-3.4
aF-4.5
aF-3.2
ag1
(g5
S'\xfb4\xb28\xfc\xf6\x1c@'
p101
tp102
Rp103
aF-3.3
aF-3.5
aF-2.3000000000000007
aF-9.599999999999998
ag1
(g5
S'\xff\xf1\xc7\xea\xbf1!@'
p104
tp105
Rp106
aF-3.6
aF-3.9
aF-5.500000000000001
aF-3.4
aF-4.800000000000001
aF-4.5
ag1
(g5
S'\xd3\xe4_\x94\xc8\x99!@'
p107
tp108
Rp109
aF-2.0000000000000004
aF-3.8
aF-3.7
aF-4.3
aF-3.3
aF-4.0
aF-3.8
aF8.484419530630111
aF8.854271399974824
aF7.0409321784973145
aF-4.7
ag1
(g5
S'\x85\xf82%\x1c} @'
p110
tp111
Rp112
aF-4.4
aF-5.1000000000000005
aF-3.4
aF9.003969687223435
aF-3.5
aF7.681366443634033
aF-2.500000000000001
aF-3.4
aF-2.1000000000000005
aF-3.8
aF-3.3
aF9.291736511141062
aF-5.1000000000000005
aF-3.8
aF8.177154541015625
aF-3.5
aF-3.5
aF-4.0
ag1
(g5
S'T\xe5WS\xd9\x86\x1d@'
p113
tp114
Rp115
aF-2.400000000000001
aF-3.8
aF-3.1
aF9.363098202645778
aF-4.1
aF8.46415519118309
aF8.773557958006858
aF-3.9
aF-3.3
aF-3.5
aF-5.4
aI-3
aF-4.6000000000000005
aF5.847679400444031
aF-3.4
aF9.31961752101779
aF-3.6
aF8.09889738559723
aF-3.7
aF-3.1
aF-3.6
aF-4.1
aF8.54568237066269
ag1
(g5
S'El8|\x00\r @'
p116
tp117
Rp118
ag1
(g5
S'f;\x17Jpd @'
p119
tp120
Rp121
aF-3.4
aF-4.1
aF-4.5
aF-3.8
ag1
(g5
S'\xb9)\x13\xae\x11. @'
p122
tp123
Rp124
aF-3.4
aF-3.9
aF-3.1
aF-3.3
aF8.987656179070473
aF-3.9
aF-3.6
aF-3.9
aF-3.8
aF-3.2
aF-2.500000000000001
aF-3.7
aF-4.0
ag1
(g5
S'\xb1m4\x04\xabz @'
p125
tp126
Rp127
aF-3.8
aF-3.2
aF-3.4
aF-2.400000000000001
aF-3.4
ag1
(g5
S'd\xfd\xea\x84>\xc8\x1e@'
p128
tp129
Rp130
aF9.1016442283988
aF-4.4
aF-3.4
aF-3.7
aF-4.1
aF-3.6
aF-3.1
aF-3.7
aF-4.0
aF-3.6
aF-3.1
aF-3.1
aF-4.800000000000001
aF-3.4
aF-3.2
aF-3.4
ag1
(g5
S'\xdd\xfc\x0fs\x159 @'
p131
tp132
Rp133
aF-3.7
aF-4.2
aF-3.6
aF6.398392105102539
aF-5.200000000000001
ag1
(g5
S'\xae\x1c\x08l\x16\x92 @'
p134
tp135
Rp136
ag1
(g5
S'\xb5\x8a\xe8<|\xdd @'
p137
tp138
Rp139
aF-3.5
aF9.110918860137463
aF-4.0
aF-3.2
aF-3.5
aF8.614068338274956
aF-4.1
aF-3.8
ag1
(g5
S'\x92tK\x81(>\x1f@'
p140
tp141
Rp142
aF-2.700000000000001
aF-3.8
ag1
(g5
S'\xe1y\xd87 & @'
p143
tp144
Rp145
aF-3.7
aF9.235507798567415
aF-3.5
aF-4.7
aF-4.4
aF8.33931123316288
aF9.369434300810099
aF-3.8
aF-4.7
ag1
(g5
S'\x82\x16\x98\x1cF\xdc\x1d@'
p146
tp147
Rp148
aF6.108520245552063
ag1
(g5
S'~\n<\x8e\xe3V\x1e@'
p149
tp150
Rp151
aF-3.5
ag1
(g5
S'y\xf3#\xf1}\x86\x1d@'
p152
tp153
Rp154
aF-3.7
aF-3.4
aF-5.0
aF-3.6
aF-3.8
ag1
(g5
S'\x89KPc\xb4b\x1f@'
p155
tp156
Rp157
aF8.428400292992592
aF-3.8
aF-3.4
aF-4.5
aF-3.2
aF-3.7
aF-3.4
aF-3.5
aF-4.0
aF-3.7
aI-3
aF9.32501049861312
aF-2.2000000000000006
aF9.083908422291278
aF8.881852883845568
aF-3.6
ag1
(g5
S'AmU\x19\x05& @'
p158
tp159
Rp160
aF-3.1
ag1
(g5
S'"/ 3\xb1\xab @'
p161
tp162
Rp163
aF-3.4
aF-3.7
aF-5.200000000000001
aF-3.3
aF-3.6
aF4.395438981056214
aF-3.7
aF-4.3
aF-5.0
ag1
(g5
S'\x00\xecH"\x05\x08 @'
p164
tp165
Rp166
ag1
(g5
S'\xc0\x9dX\xa2\xf6?\x1c@'
p167
tp168
Rp169
ag1
(g5
S'\t\x85\x9ca\x92<\x1d@'
p170
tp171
Rp172
aF-3.3
aF-3.4
aF-2.400000000000001
ag1
(g5
S'T\\\xf0&`- @'
p173
tp174
Rp175
ag1
(g5
S'\xb8\xc4\xa5\xa5\xd7\xe2\x1e@'
p176
tp177
Rp178
aF-3.8
aF-4.4
aF-3.8
aF-3.2
aF-3.3
aF7.537219899892807
aF8.238356065750121
aF-2.700000000000001
aF-4.1
aF-3.8
aF-3.3
aF-3.5
aF-4.0
aF-4.3
aF8.321056409180164
aF-3.7
aI-3
aF-4.4
aF-2.500000000000001
aF-4.6000000000000005
aF9.124489686265587
aF-3.9
aF-3.9
aF-3.8
aF6.408441802859305
aF-3.3
ag1
(g5
S'k\xda\xb1|k9\x1c@'
p179
tp180
Rp181
aF-2.3000000000000007
aF-3.3
aF7.720438468456268
aF-4.0
aF-4.0
aF-4.3
aF-3.5
aF8.08419948220253
aF-2.2000000000000006
aF8.626390239596367
aF-4.7
aF-2.9000000000000012
aF-2.400000000000001
aF-3.6
aF-3.4
aF-3.3
aF-3.4
aF6.764433133602142
aF-3.1
aF8.63517394810915
aF-4.5
aF-2.400000000000001
aF-3.7
aF-5.1000000000000005
ag1
(g5
S'\x9ej\xadb\\\xb1\x1a@'
p182
tp183
Rp184
ag1
(g5
S'\x0c\xcc\xd6\x80\xebg\x1d@'
p185
tp186
Rp187
aF-3.3
ag1
(g5
S'v\xca\xf5M$\xc8\x1f@'
p188
tp189
Rp190
aF-2.1000000000000005
aF4.663672924041748
aF-3.4
aF-3.6
aF-3.2
ag1
(g5
S'\x9f\xa7m\x84/\x08!@'
p191
tp192
Rp193
aF-4.2
aF-3.3
ag1
(g5
S'|\x16|\x1e\xeb\xdd\x1e@'
p194
tp195
Rp196
ag1
(g5
S'lV>x\x03^ @'
p197
tp198
Rp199
aF7.729702478647232
aF-4.9
aF-2.400000000000001
aF8.317917028069497
aF-3.9
ag1
(g5
S'\x81\x08\xe3DDr\x19@'
p200
tp201
Rp202
aF8.827542912960052
aF-3.3
aF-3.2
aF-3.6
aF-3.2
aF-4.9
aF-3.8
aF-4.0
aF-3.3
aF-4.800000000000001
aF-3.2
ag1
(g5
S'2\xc6\x1c)\xa0\xc3\x18@'
p203
tp204
Rp205
aF-3.4
aF-3.5
aF6.380073654651642
aF-3.2
aI-3
aF-4.3
ag1
(g5
S'\xc7\xf7\x19\xad\xe2\x93\x1f@'
p206
tp207
Rp208
aF8.481186892092229
aF-3.1
aF-4.6000000000000005
aF-4.2
aF7.8446421205997465
aF-4.4
aF-3.7
aF-3.4
aF8.757381527125835
aF-3.7
aF-3.5
aF8.949282255768775
ag1
(g5
S'\xe7W\xa7\xe7"\xf2\x1f@'
p209
tp210
Rp211
aF-2.3000000000000007
ag1
(g5
S'\xc9+\n\xe3\xfd\x87\x1f@'
p212
tp213
Rp214
ag1
(g5
S'\xad\xa5M\x81I\xa4 @'
p215
tp216
Rp217
aF8.989183925790712
aF8.288395498134195
aF-5.200000000000001
aF8.901564081013202
aF-4.800000000000001
ag1
(g5
S'@k\x0f(\x99\xca @'
p218
tp219
Rp220
aF-2.2000000000000006
aF-3.9
aF-4.800000000000001
ag1
(g5
S'\xa0\rN|o\xf4\x1f@'
p221
tp222
Rp223
ag1
(g5
S'~\xeb,6\xe6\xc1\x1a@'
p224
tp225
Rp226
aF-3.6
aF8.831738831102848
aF4.352676248550415
ag1
(g5
S'\xb2S.\xfd\xb2\xda\x1f@'
p227
tp228
Rp229
aF-2.700000000000001
aF-3.1
aF-3.6
aF-3.3
aF-3.4
aF-3.4
ag1
(g5
S'uM\xe11\xdb\xdc @'
p230
tp231
Rp232
aF-2.2000000000000006
aF-4.4
ag1
(g5
S'/\x11\xed\xb5yc!@'
p233
tp234
Rp235
aF-5.500000000000001
aF-3.8
aF-3.6
aF8.388989169150591
aF-5.200000000000001
aF8.104349148273467
aF-4.3
aF7.153652369976044
aF-4.9
aF-3.5
aF-3.2
ag1
(g5
S'\xec\x9d\xee\x10\x15\x9a @'
p236
tp237
Rp238
aF-4.6000000000000005
aF7.83420186638832
ag1
(g5
S'\x8b@\xed\x16\xe4\x01\x1b@'
p239
tp240
Rp241
aF-2.400000000000001
aF-3.4
aF8.486952652037143
aI-3
ag1
(g5
S')L\x0e\xeb\xc6\x82 @'
p242
tp243
Rp244
ag1
(g5
S'\xbaj\x83\xb5\xaa\xd8\x1b@'
p245
tp246
Rp247
aF-3.2
aF-3.4
ag1
(g5
S'\xb0\xc8\xb1\x11P^\x1e@'
p248
tp249
Rp250
ag1
(g5
S'\x86,\x1f\xfc\xd0L\x1d@'
p251
tp252
Rp253
aF-5.0
aF-4.1
aF-3.3
ag1
(g5
S'\xdfL\xd7\x18Ra @'
p254
tp255
Rp256
ag1
(g5
S'\x0f\xa0\xef\xed8\x0f!@'
p257
tp258
Rp259
ag1
(g5
S'\xacz\xa7\xbd@M!@'
p260
tp261
Rp262
ag1
(g5
S'\xd9\xc1\xa6\r\x02h\x1b@'
p263
tp264
Rp265
ag1
(g5
S'\xf7;l\xb6\x15\x90\x1d@'
p266
tp267
Rp268
aF-2.400000000000001
aF-4.5
aF7.043906176090241
aF-2.1000000000000005
aF-2.500000000000001
aF7.62500142455101
aF8.630351631715893
ag1
(g5
S'\xb9\xc3 \x14kr @'
p269
tp270
Rp271
aF-2.2000000000000006
aF-3.9
aI-3
aF7.3514548361301415
aF7.693609982728958
ag1
(g5
S'\xc3\x07\xce~\x96\x10 @'
p272
tp273
Rp274
aF-2.400000000000001
aF7.588737216591834
aF-3.3
aF-4.3
aF-2.2000000000000006
aF8.148826637864113
aF-2.800000000000001
aF7.307035744190216
aI-3
aF-3.5
ag1
(g5
S'\xae\xbf\xac\xa7\x19\x13\x1b@'
p275
tp276
Rp277
aF8.672326174378394
ag1
(g5
S'2\x85\x80\xc5\x10\x9a\x1f@'
p278
tp279
Rp280
aF-3.9
aF-2.3000000000000007
a.