(lp0
F-7.499999999999994
acnumpy.core.multiarray
scalar
p1
(cnumpy
dtype
p2
(S'f8'
p3
I0
I1
tp4
Rp5
(I3
S'<'
p6
NNNI-1
I-1
I0
tp7
bS'\x13\xe0\xb2\xf7\x98\xf2\x13@'
p8
tp9
Rp10
aF-6.000000000000002
aF-6.500000000000002
ag1
(g5
S'\xce3\xf0\xf6\xa7\xaf\x13@'
p11
tp12
Rp13
aF-7.699999999999999
aF-5.0
aF-4.0
aF-4.1
aF-6.200000000000002
aF-6.000000000000002
aF-3.4
ag1
(g5
S'\x8a\xa0\xb0\xdc[G\x13@'
p14
tp15
Rp16
aF-3.9
aF6.016031724214553
aF-4.4
aF5.655128550529478
aF7.663458234071731
ag1
(g5
S'\x19f\xa8k\xb6\xa7\x18@'
p17
tp18
Rp19
aF-3.5
aF-4.2
aF-6.900000000000002
aF7.032372140884398
aF6.966166192293166
aF-7.200000000000002
aF-4.9
aI-3
ag1
(g5
S'\x02\x1a\xb9\xe2\x9c\x95\x1b@'
p20
tp21
Rp22
aF-4.1
aF-3.3
aI0
aI-3
aF-5.300000000000001
aF-3.8
aF-5.600000000000001
aF8.565613561868668
aF-5.599999999999996
aF-5.0
aF-4.2
aF-3.7
aF-4.0
aF-3.6
aF5.728602563217281
aF-5.299999999999999
aF-4.4
aF-5.399999999999997
aF-3.3
aF-3.4
aF6.463669356703757
aF-4.6
ag1
(g5
S'~&\xf8j6D\x1d@'
p23
tp24
Rp25
aF8.55645439531654
aF-4.2
aF-3.3
aF-3.7
aF-4.0
aF-3.7
aF-4.0
aF-5.200000000000002
aF-4.7
aI0
aF-4.0
ag1
(g5
S',\x894)\xa2L\x15@'
p26
tp27
Rp28
ag1
(g5
S'\xa2Z5\xa5\x00B\x18@'
p29
tp30
Rp31
aF-4.2
aF-3.2
aF-5.4
aF-4.300000000000002
ag1
(g5
S'\x12>9H\xd0z @'
p32
tp33
Rp34
aF-3.3
aF-4.4
aF-4.2
aF-3.2
ag1
(g5
S'T=+\xac\xc9E @'
p35
tp36
Rp37
aF-3.2
aF-6.000000000000001
aF-3.9
aF-6.900000000000002
ag1
(g5
S'>P\xd2\x16\x1ah\x1f@'
p38
tp39
Rp40
aF-4.6
aF9.065334029868245
aF-4.7
aF-4.700000000000001
aF-3.4
aF-4.5
aF-4.3
ag1
(g5
S'z5$\xa7=\xd3\x1b@'
p41
tp42
Rp43
ag1
(g5
S'P\xb1\xf8J\x10&\x16@'
p44
tp45
Rp46
aF8.742171239852905
aF-3.2
aF-3.9
aF-4.0
aF-3.8
aF-3.2
aF4.070122444629667
aF7.305096215009689
aF-4.000000000000003
aF-4.0
aF-3.9
ag1
(g5
S'\x1ah\xa1u\xb9&\x1d@'
p47
tp48
Rp49
aF-3.7
aI-3
aF-3.2
aF-4.5
aF-3.7
aF-4.000000000000002
aF8.283815367519855
aF-4.000000000000002
ag1
(g5
S'w9\xe0\x05\x85\x91\x19@'
p50
tp51
Rp52
aF-3.9000000000000004
aF-3.6
aI-3
aF-4.2
aF-6.100000000000001
aF-3.7000000000000024
aF7.4989056088030335
aF-3.8
aF-4.0
aF-3.5
aF-3.6
aF-3.4
aF-3.7
aI-3
aF-5.200000000000001
aF-3.4
ag1
(g5
S'\x11\x16\xd0\xf7yq @'
p53
tp54
Rp55
aF-3.6
aF-3.6
aF-4.6000000000000005
aF-5.0
aF-0.4
ag1
(g5
S'|\xe3-tE\xb5\x1d@'
p56
tp57
Rp58
aF-3.7
aF-4.2
aF-4.8000000000000025
aF-3.3
aF-4.2
aF-3.7
aF-5.4
aF-3.5
aI-3
aF-4.0
aF-3.6
aF-2.0
aF-3.5
aI-3
aF-3.8
aF-2.3000000000000007
aF-3.5
aF-3.5
aF-3.3
aF-2.8000000000000007
aF-3.6
aF-6.500000000000002
aF-1.4
aF-4.0
aF-3.6
aF-3.5
aF7.620407235622406
aF-4.1
aI0
aF-3.4
aF-3.5
ag1
(g5
S'\xe7\xd7\x04\x86\xd1" @'
p59
tp60
Rp61
aF6.964278152585029
aF-3.4
aF-3.6
aF-4.4
ag1
(g5
S'\x14I=\xe75\xce\x1e@'
p62
tp63
Rp64
aF-4.2
aF-3.600000000000002
aF-3.6
aF-3.9
aF-5.300000000000001
aF-3.3
aF-3.3
aF-4.2
aF6.652199767529964
aF-4.7
aF-6.0
aF-5.300000000000001
aF-4.0
aF-4.3
aF-3.4
aF-3.8
aF-3.4
ag1
(g5
S'\x9c\xc0\x80\x83K\xcb\x1f@'
p65
tp66
Rp67
aF-1.3
aF-3.6
aF-2.3000000000000007
aF8.716926957666875
aF-4.800000000000001
aF-1.5000000000000002
aF9.187084874417632
ag1
(g5
S'<\xbd>\xc68< @'
p68
tp69
Rp70
aF-4.3
aF-1.9000000000000006
aF9.420515932142735
aF-3.5
aF-3.4
aF-3.5
aF-3.1
aF8.345943248271942
aF-3.5
ag1
(g5
S'\xa8\xd4\xe5\xab\x19\xb8\x1c@'
p71
tp72
Rp73
aF6.251279997825622
aF8.853243860974908
aI-3
aF-3.6
aF-3.8
aF8.233915448188782
aF9.119940073788166
aF-6.000000000000002
aF9.268069592863322
aF-5.200000000000001
aF-3.9
ag1
(g5
S'\xcf\x1d\xec\xf1Jy @'
p74
tp75
Rp76
aF9.28355464041233
aF-4.0
aF-3.5
aF-3.2
aF-3.9
ag1
(g5
S'-)B\x98\xc6\x87 @'
p77
tp78
Rp79
aF-0.9999999999999999
aF7.880782812833786
ag1
(g5
S'\xa3\x15\x89^!\xdf\x1e@'
p80
tp81
Rp82
aF-1.8000000000000003
ag1
(g5
S'\xa3.\xbb\x95Q\xb0\x1c@'
p83
tp84
Rp85
aF-4.5
aF-4.1
aI0
aI-3
aF-3.8
aF-3.7
aF-4.7
ag1
(g5
S'N{\x1b\x9a\xfc.\x1d@'
p86
tp87
Rp88
aF7.240736486017704
aF-3.8
aF-6.200000000000001
aF-3.7
aF8.375431972742081
aF-3.4
aF-3.2
aF-3.9
aF-3.9
aF-6.8000000000000025
aF-4.9
ag1
(g5
S'/\xc1)\x17\xa7\x17 @'
p89
tp90
Rp91
aF-4.800000000000001
aF7.818618632853031
aF-3.800000000000002
aF-3.4000000000000017
aF-5.300000000000001
aF-3.7
aF-5.1
aF-3.6000000000000023
aF-3.7
aF-3.800000000000002
aF-5.9
aF-3.7
aI0
aF-3.8
ag1
(g5
S'X\rh\xe1d\x87\x1f@'
p92
tp93
Rp94
aF-3.9
aF-2.100000000000001
aF-3.8
aF-3.7
aF6.989013981819153
aF8.97118827700615
aF7.397001598775386
aF-3.6
aF-3.6
aF-3.5000000000000018
aF8.008274686336517
aF-1.5000000000000002
aF-4.5
aF-3.4
aF-6.100000000000001
aF-3.6
aF-3.5
aF7.162890940159558
aF-1.7
aF-2.2
aF-6.000000000000001
aF-6.200000000000001
aF-2.400000000000001
aF-5.300000000000001
aF-2.2000000000000006
aF-3.5
aF-3.3
aF-1.2
ag1
(g5
S'\xc5\xbd\xcdW\xf1h\x1f@'
p95
tp96
Rp97
aF-5.800000000000001
aF-4.000000000000002
aF-5.000000000000003
aF-4.100000000000001
ag1
(g5
S'|\x9dc%\xd1\xfc\x1e@'
p98
tp99
Rp100
aI-3
aF-5.500000000000001
aF8.691644467413425
aF7.621879908442496
aI-3
aF9.647704032063483
aF-4.800000000000001
ag1
(g5
S'\x9b\x04s\x1b\x0b\x17!@'
p101
tp102
Rp103
aF-5.200000000000001
ag1
(g5
S'{\xe4`T\x19\xa9 @'
p104
tp105
Rp106
aF-3.8
aF7.866466123610735
aF-5.300000000000001
aF9.249597577750682
aF7.750376808643341
aF-3.4
aF-3.3000000000000016
aF-4.0
aF9.183514679968358
aF-4.0
ag1
(g5
S'q\xfc"~\x1f\xc7\x1e@'
p107
tp108
Rp109
aF-6.500000000000002
aF-3.2
ag1
(g5
S'\xa3\x95\xab\x06\x84\xf6\x1b@'
p110
tp111
Rp112
aF-3.4
aF-3.8
aF7.653627026081085
aF-3.8
aF-6.700000000000001
aF8.210924166440964
aF-3.9
aF-5.900000000000001
aF-3.9
aI0
aI-3
aF-5.2
aF-4.1
aF8.376499150693416
aF-4.2
aF-5.0
aF-3.7
aF-5.2
aF-7.1000000000000005
ag1
(g5
S'\x8d$\x88\x1d\xb6\x99 @'
p113
tp114
Rp115
ag1
(g5
S'\x1e\x87\x88hR\xa4\x1f@'
p116
tp117
Rp118
ag1
(g5
S'!\xc9\xf1H#"!@'
p119
tp120
Rp121
aF8.743685275316238
ag1
(g5
S' \x1bR\x1eh\x07!@'
p122
tp123
Rp124
aF-5.0
aF8.609039860591292
ag1
(g5
S'\x86\x80\x16\xfb\x9f\xf7\x1b@'
p125
tp126
Rp127
aF-4.6000000000000005
aF-4.4
aF-4.1
aF-6.500000000000002
ag1
(g5
S'\xa6\x89\xac\x0b\x90\xc5 @'
p128
tp129
Rp130
aF-3.5
aF8.053311374783515
aF9.256066000275315
ag1
(g5
S'?\xcap\x865m\x1a@'
p131
tp132
Rp133
aF-4.7
ag1
(g5
S'|\xf4\xef)\xb1\xb0\x1e@'
p134
tp135
Rp136
aF8.419040596485138
aI0
aF-3.6
ag1
(g5
S'\x01\r\x86\xe6h^ @'
p137
tp138
Rp139
aF8.566049593687058
aF-3.1
aF8.722730085253716
aF8.0809786349535
aF-4.3
aF-3.7
aF-3.2
aF-3.8
aF-3.3
ag1
(g5
S'\xf8$\x05\xdd\xb4\xf7 @'
p140
tp141
Rp142
aF8.939696264266967
aF-3.3000000000000016
aF-3.3
aF-4.1
aF-4.000000000000002
aF-8.0
aF-4.3
ag1
(g5
S'|*my\x86J\x1f@'
p143
tp144
Rp145
aF8.951220107078552
aF8.703585293889045
aF8.842223089933395
ag1
(g5
S'l\xc6\xc67Jb\x1d@'
p146
tp147
Rp148
aF-3.5
aF7.075331574678421
aF-3.5
ag1
(g5
S'n\x0c\x87(lt @'
p149
tp150
Rp151
ag1
(g5
S'8\xdf\xe4\x192\\ @'
p152
tp153
Rp154
aF-3.2
aF-3.3
ag1
(g5
S'\xb0Y\xd0\n\xd23!@'
p155
tp156
Rp157
aF9.234157775714994
aF-4.300000000000001
aF-3.2
aF-3.3
ag1
(g5
S'\xee\x81\xd3C\x91\xa6\x11@'
p158
tp159
Rp160
aF-3.600000000000002
aF-3.6
aF-5.5
aI-3
aF8.775382825732231
aF9.596553644305095
aF9.088581825746223
aF-3.3
aF-6.300000000000001
ag1
(g5
S'\xe1\x7f\x85\x0b\xdb\x13\x1e@'
p161
tp162
Rp163
aF9.381517489999533
aF7.016599303483963
ag1
(g5
S'\x8e\x94\xbf\xc3\x86\x13 @'
p164
tp165
Rp166
ag1
(g5
S'j4&l\x9d\xad\x17@'
p167
tp168
Rp169
aF9.080148676037789
aF8.900250731408596
aF-4.6000000000000005
aF9.178669903241097
aF-5.700000000000001
aF6.654304707050324
aF-4.1
ag1
(g5
S'\xcb\x9fN;\xec\\\x1f@'
p170
tp171
Rp172
aF-4.0
aF7.625005352497101
aF-5.6000000000000005
aF-3.4
aF-3.3000000000000016
aF9.27198863234371
aF7.687301218323409
aF-3.600000000000002
ag1
(g5
S'\xbbt\x1e\xe2-8\x13@'
p173
tp174
Rp175
aF-5.600000000000001
aI0
aF8.829142598807811
aF9.04809553474188
aF6.50177157819271
aF-5.400000000000001
aF-3.3
ag1
(g5
S'\xa7\x82Q"a\x8b\x1f@'
p176
tp177
Rp178
aF-4.100000000000001
aF9.094499276578427
aF8.762020876258612
aF-5.200000000000001
aF9.268650145828724
ag1
(g5
S'q\x0b\x88\xb9\x8b\xa6 @'
p179
tp180
Rp181
aF-5.300000000000001
aF-3.6
ag1
(g5
S'R~s~o\x18\x1f@'
p182
tp183
Rp184
aF-4.5
ag1
(g5
S'\xc8\x0cZ\xe6t\x15\x19@'
p185
tp186
Rp187
aI-3
aF7.459734478592873
aF8.973764249123633
ag1
(g5
S'T\xa2\xecpE\xa2\x1f@'
p188
tp189
Rp190
aF9.366668786853552
aF7.729767809808253
aF-3.5
ag1
(g5
S'\xa2\xba!x\xee\xb5\x1f@'
p191
tp192
Rp193
aF-3.5
ag1
(g5
S'\x8d&\x96\xc9\xa5\xf4\x1d@'
p194
tp195
Rp196
aF9.048688951134682
aF7.1379557132720945
aI0
aF9.40185703933239
aF-4.3
aF-3.4
aF-3.4
aF8.95552206337452
aF-3.6
aF8.851253651082516
aF6.255465659499167
aF5.70586079508066
aF-5.2
aF-5.0
aF-3.6000000000000023
aF-4.000000000000002
aF7.871297118067741
ag1
(g5
S'ua\xb4L\xa8U\x1f@'
p197
tp198
Rp199
aF9.530975949391722
aF-3.4000000000000017
aF-3.5
aF-4.9
aF9.28587423041463
aF-3.4
aF-2.9000000000000012
ag1
(g5
S'\xb8GZ\x06:\xaf @'
p200
tp201
Rp202
aF8.983663526829332
aF-3.7
ag1
(g5
S'\xc5\x98\t\x05H)\x1b@'
p203
tp204
Rp205
aF-4.9
aF-3.8
aF9.380416259169579
aF7.782554617524147
aF8.725280837342144
aF-3.1
ag1
(g5
S's:\xfbj\xc7\xa6\x1f@'
p206
tp207
Rp208
aF8.68713282942772
ag1
(g5
S't\x84\xde\x1f\xd1)\x14@'
p209
tp210
Rp211
aF-3.5
aF9.311639915779233
aF8.204485800862312
aF9.35581345707178
aF-3.5
aI-3
aF7.778547903243451
ag1
(g5
S'\x0e\x1e4\x8dxi @'
p212
tp213
Rp214
aF-3.200000000000002
ag1
(g5
S'\x89C\x9e6!)\x1d@'
p215
tp216
Rp217
ag1
(g5
S'q\xa1iJB\xff\x1a@'
p218
tp219
Rp220
aF8.633431215584277
aF9.130903887376189
ag1
(g5
S'\x82Y\x1a\x88\xb5\xb0\x1a@'
p221
tp222
Rp223
aF9.006991396844388
ag1
(g5
S'4\xddrd\xe8\xb1 @'
p224
tp225
Rp226
aF7.963025431334972
aF8.099258041381836
aF-3.7
aF6.604685866832733
aF8.316519480943679
ag1
(g5
S'\xea\x021\xfdp\xe7\x15@'
p227
tp228
Rp229
aF-5.4
aF-4.2
aF-4.1
ag1
(g5
S'\xa0\x81\xe2\x179\x81 @'
p230
tp231
Rp232
ag1
(g5
S'\xd2\xe0\xb1/\x07\x8f @'
p233
tp234
Rp235
aF8.77681449353695
aF8.166954956948757
aF8.163461554050446
aF9.151698461920024
aF-5.100000000000001
aF-3.3
aF9.349443751946092
aI0
aF-3.2000000000000015
aF8.364631079137325
aF8.49510791450739
ag1
(g5
S"v\xe5E!V'\x18@"
p236
tp237
Rp238
aF-3.8000000000000016
aF-5.4
ag1
(g5
S'\x1a\xbd\xe2e\x85w\x18@'
p239
tp240
Rp241
aF-3.5000000000000018
ag1
(g5
S'\xfeu\x15C=\xfc\x19@'
p242
tp243
Rp244
ag1
(g5
S'\xbe1Rq\xbd;\x1b@'
p245
tp246
Rp247
aF8.357657930441201
aF7.926418745517731
aF-4.4
aF-5.0
aF8.060995978116988
aF-3.5
ag1
(g5
S'0u\x04%\xb0#\x1c@'
p248
tp249
Rp250
aF9.446955109387636
aF9.283427229523658
aF8.772009883262218
aF8.643078854680061
aF8.549027149379253
aF6.656489270925522
aF-8.400000000000002
aF-3.6000000000000023
aF8.362061567604542
aF6.920411119610071
ag1
(g5
S'\x9f\xa5_1%~ @'
p251
tp252
Rp253
ag1
(g5
S'1\x9f\xa9+\x0f@\x1e@'
p254
tp255
Rp256
aI0
aF8.85792958587408
aF8.128707981109619
aF9.121934899687767
ag1
(g5
S'\x18(-\xafI\xb0 @'
p257
tp258
Rp259
ag1
(g5
S'\xf50\xe4>\xe2\xb2\x1e@'
p260
tp261
Rp262
aF9.167221428453923
aF-3.9
aF8.467588896304369
aF-5.1000000000000005
aF8.304306952655315
aF8.575552442669869
aF9.432769364118576
ag1
(g5
S'\x1e !\xff\xac@\x1e@'
p263
tp264
Rp265
aF8.533695469796658
ag1
(g5
S'\x0e\xc0$%mD\x0f@'
p266
tp267
Rp268
aF8.81030642837286
aF8.678248779661953
aF7.255652010440826
ag1
(g5
S'E\x16\x05T7_!@'
p269
tp270
Rp271
aF8.320382391661406
aF-4.4
ag1
(g5
S'\xf2\x97\xbe\xee\xc58\x1e@'
p272
tp273
Rp274
aF8.641658361256123
aF8.820548170804978
aF-4.300000000000001
aF8.256073704361915
aF9.23514960706234
ag1
(g5
S'\x86\x19\x1d\xa7\xf5\xc3\x1a@'
p275
tp276
Rp277
ag1
(g5
S'\xec\xb2#\xd4\xe4|\x1c@'
p278
tp279
Rp280
aF9.043686200678348
ag1
(g5
S'\x8c\xd9?]v$ @'
p281
tp282
Rp283
aF-5.700000000000001
ag1
(g5
S'Bs>_b4\x1c@'
p284
tp285
Rp286
aF9.406897071748972
aF9.161481657624245
aF8.943977902084589
aF8.532899233698846
aF8.6608467919752
aF9.322550152987242
ag1
(g5
S'0FR\xd6!\xc9\x18@'
p287
tp288
Rp289
a.