(lp0
F-8.799999999999985
aF-5.1000000000000005
aF-3.4
aF-5.1000000000000005
aF-5.0
acnumpy.core.multiarray
scalar
p1
(cnumpy
dtype
p2
(S'f8'
p3
I0
I1
tp4
Rp5
(I3
S'<'
p6
NNNI-1
I-1
I0
tp7
bS'\xf13\xec\x01N\x1d\x1d@'
p8
tp9
Rp10
aF-5.599999999999996
aF-4.6000000000000005
aF-3.2
aF-6.8000000000000025
aF-5.1000000000000005
aF6.818977434188126
aF-3.3
aF-4.0
aF8.398409803211688
aF-8.299999999999997
aF-4.7
aF-3.6
aF-4.0
aF-3.2
aF-4.6000000000000005
ag1
(g5
S'\xd7g\xd5\xab+\x90\x1c@'
p11
tp12
Rp13
aF-4.1
ag1
(g5
S'3\x11\xca\xcf\x88$\x1d@'
p14
tp15
Rp16
aF-3.2
ag1
(g5
S'\xd3.\xe0\xdfd\xc5\x18@'
p17
tp18
Rp19
aF1.9152715951204407
aF-3.3
aF6.660458394885062
aF-4.7
aF-3.7
ag1
(g5
S'\xcc\x12{\x072\xf1\x1d@'
p20
tp21
Rp22
aF-4.6
aF-5.1999999999999975
aF-5.500000000000001
aF-7.699999999999999
aF-6.100000000000001
aF-5.700000000000001
aF-4.7
aF-3.2
ag1
(g5
S'{\xfe\x84\xb9\x13\x06\x1d@'
p23
tp24
Rp25
aF-7.699999999999999
aF5.644986786693334
aF-3.9
aF8.53431309312582
aF-3.8
aF-5.900000000000001
aF-3.4
aF-3.8
aF9.204593183100224
aF-3.700000000000002
aF-4.1
aF-2.500000000000001
aF-3.3
aF-4.3
aF-4.0
aF-4.3
aF8.747231751680374
aF-3.8
aF-3.3
aF6.3856485808268175
aF-3.2
aF-3.4000000000000017
aF-3.4
aF-4.100000000000001
aF-3.2
aF-3.7
aF-3.5
aF-4.0
ag1
(g5
S'\xd4\xa0$\xf7\x12\\\x1d@'
p26
tp27
Rp28
ag1
(g5
S'X\x08@\x0b\xca\xef\x1c@'
p29
tp30
Rp31
aF-3.6
aF-4.0
aF-3.8
aF8.153044027090072
aF-2.0000000000000004
aF8.934820930659772
aF-3.9
ag1
(g5
S'\xed\x11Uv\xbbz\x16@'
p32
tp33
Rp34
ag1
(g5
S'\x98\xf5\xef2-\xe0\x1d@'
p35
tp36
Rp37
aF6.461154759861527
aF-4.800000000000001
aF-3.6
aF-3.7
aF-3.7
aF-4.9
aF-4.5
ag1
(g5
S'i\xfa\xf3p\xa4| @'
p38
tp39
Rp40
aF-4.6000000000000005
aF-1.7000000000000004
aF-4.2
aF8.28187737762928
aF-3.3
aF-4.1
aF-3.3
aF-3.7
aF-4.5
aF-3.2
aF-6.900000000000002
aF-3.3
aF-4.300000000000001
aF-3.7
aF-4.2
aF-1.5000000000000002
aF-3.8
aF-4.0
aF-3.9
aF8.87610812485218
aF7.184514343738556
aF-4.3
aF-3.8
aF-4.5
ag1
(g5
S'\xddk|\xbe\xe9\x9b\x1c@'
p41
tp42
Rp43
aF-4.0
aF-3.9
aF-3.8
aF-2.1000000000000005
ag1
(g5
S'\x98&\xb1n\xc2\x94\x1c@'
p44
tp45
Rp46
aF-4.7
aF-5.4
aF-3.700000000000002
aF-3.3
ag1
(g5
S'\xc2\xfa\xa2\x9e\xf3\xf5\x1b@'
p47
tp48
Rp49
aI-3
aF-4.5
aF-3.4
aF-3.7
aF-3.7
aF-4.4
aF-1.5000000000000002
ag1
(g5
S'\x99\x00;\x02\x8dE\x19@'
p50
tp51
Rp52
aF-3.9
aF-5.1000000000000005
aF-3.9
aF-4.200000000000001
aF-3.4
aF-3.8
ag1
(g5
S'Q\xba\xfc~\x98\xdf\x1d@'
p53
tp54
Rp55
aF-3.5
aF8.549224492907523
ag1
(g5
S'~!\xe4\xcc\xbf\x0b\x1d@'
p56
tp57
Rp58
aF-4.7
aF-3.6
aF6.835124576091767
aF-3.4
ag1
(g5
S'.\x00n\x15O\x02\x1f@'
p59
tp60
Rp61
aF-3.5
aF-3.5
aF-3.6
aF-3.6
aI-3
aF-4.3
ag1
(g5
S'\xbdWU\xcb\xf2\x87\x1a@'
p62
tp63
Rp64
aF-3.7
aF-5.800000000000001
aF-3.2
aF-4.2
aF-3.5
aF-4.9
aF8.585257038474083
aF-2.3000000000000007
aF-3.3
aF-3.1
aF-3.5
ag1
(g5
S'\x87kk\x0cX\xe3\x18@'
p65
tp66
Rp67
aF-3.2
aF-4.5
aF-4.6000000000000005
aF-4.7
aF8.040390878915787
ag1
(g5
S'\xb5\xbb\xd4\x1b\xc6\x15\x1e@'
p68
tp69
Rp70
aF-3.5
aF-3.3
aF6.953685933351516
aF-4.7
aF-4.1
ag1
(g5
S'\xb2D-\x1c\xe1\x9f\x1d@'
p71
tp72
Rp73
aF-3.7
aF-4.7
ag1
(g5
S'NU)bPU\x1d@'
p74
tp75
Rp76
aF-3.6
aF7.101453542709351
aF-4.2
ag1
(g5
S'T\xd7\xb3\xe5 \xab\x1b@'
p77
tp78
Rp79
aF7.888028359413147
aF-3.3
aF-3.3
aF-4.800000000000001
aF-4.2
aF-3.1
aF-4.9
ag1
(g5
S'\x17\xec\xf1\xe2dZ\x1d@'
p80
tp81
Rp82
aF-3.4
aF-3.2
aF7.9635697424411775
aF-3.3
aF-5.800000000000001
aF7.358774346113205
aF-3.600000000000002
aF7.706143763661384
aF-4.1
aF-2.400000000000001
aF-3.2
aF-3.4
aF6.061784240603446
aF-1.4000000000000001
ag1
(g5
S'\xa9(\x81\x03y.\x1b@'
p83
tp84
Rp85
aF-1.5000000000000002
ag1
(g5
S'E\xab\r"W\xd9\x19@'
p86
tp87
Rp88
aI-3
ag1
(g5
S'<\x0c\xe9\xd0L\x0f\x1c@'
p89
tp90
Rp91
aF-3.3
ag1
(g5
S'w]\xdbqx\xa6\x1b@'
p92
tp93
Rp94
ag1
(g5
S'\xdb\xcdi\xa6\xc7Q\x1f@'
p95
tp96
Rp97
aF7.06560431420803
aF-3.3
ag1
(g5
S'\xaa#\xacb\x90\xed\x1a@'
p98
tp99
Rp100
aF-3.2
aF5.922646844387054
aF7.252443480491637
ag1
(g5
S'\xcd\xbf\x00g\xba\xfb\x1d@'
p101
tp102
Rp103
aF-3.3
aF6.288234454393386
aF-4.1
aF-3.3
aF7.450268042087555
aF7.613503637909888
aF-3.7
aF-4.4
aF-3.8
aF7.157448611967265
aF-3.6
aF-3.4000000000000017
aF-4.5
aF-4.1
aF-3.2
aF-3.7
aF-3.8
aI-3
ag1
(g5
S'\xdf$6;\x94\xae\x1b@'
p104
tp105
Rp106
aF-4.6000000000000005
aF-3.9
aF-3.9
aF-3.6
aF-3.7
ag1
(g5
S'\xba\xa8\x96\x91sF @'
p107
tp108
Rp109
aF-4.1
aF-4.0
aF-4.2
aF-3.5
aF-3.5000000000000018
ag1
(g5
S'\x17\xcbfQh\xf7\x1f@'
p110
tp111
Rp112
aF-3.5000000000000018
aF-3.6
aF-3.1000000000000014
aF-4.0
aF-3.4
aF-4.2
aF-4.4
ag1
(g5
S'\xa2\xcf\xdcL]\x12 @'
p113
tp114
Rp115
ag1
(g5
S'yS\xc2\xbfrM\x1a@'
p116
tp117
Rp118
aF-4.6000000000000005
aF-3.2
aF-3.5
ag1
(g5
S'\x8a\xef\xf3\xd5\xe1\x9e\x1e@'
p119
tp120
Rp121
aF-3.5
aF-3.4
aF-3.7
aF7.698120033740997
ag1
(g5
S'\x1d\x9c\xcb\xb5\xad\x0c!@'
p122
tp123
Rp124
ag1
(g5
S'v9\xda\xc8\x0eC @'
p125
tp126
Rp127
aF-3.3
aF-3.6
aF-2.1000000000000005
aF-4.0
aF-2.3000000000000007
aF-3.5
aF-3.8
aF7.35282083749771
ag1
(g5
S'\xd1^\x84vH\x8f\x1d@'
p128
tp129
Rp130
ag1
(g5
S'\x9eqI\xa7aG\x1f@'
p131
tp132
Rp133
aF-2.2000000000000006
aF-3.2
ag1
(g5
S'\xb5\xc6.N\xba\x90\x1f@'
p134
tp135
Rp136
ag1
(g5
S'\xba\xc9l&\xfdk\x1c@'
p137
tp138
Rp139
aF-2.3000000000000007
aF-6.300000000000002
aF-1.4000000000000001
aF-6.900000000000002
aF-3.4
aF-3.2000000000000015
aF-3.3
aF-2.1000000000000005
aF-3.2
aI-3
aF-3.9
aF-3.5000000000000018
aF-3.9
aF4.869015693664551
aF8.715728145837783
aF-5.1000000000000005
aF4.860129451751709
aF-4.4
aF-3.8
aF-6.100000000000001
aF-3.7
aF-4.2
aF7.646529656648635
aF6.31245438158512
aF-4.2
aF7.651160261034965
aF-4.1
aF-3.600000000000002
aF-3.8
aF5.000152403116225
aF-3.5
aF-3.3
aF-2.400000000000001
ag1
(g5
S'\x10J\xc4{\x15"\x1d@'
p140
tp141
Rp142
aF-3.7
aF-3.3
aF-4.5
aF-3.9
aF-4.4
aF-4.2
aF-5.0
aF8.28420842885971
aF-3.3
aF-3.9
aF-3.4
aF-4.4
aF-2.1000000000000005
aF-4.4
aF-3.6
ag1
(g5
S'\x81r\x13\xb5Yg\x1d@'
p143
tp144
Rp145
aF-3.7
aF-3.0000000000000013
aF-1.5000000000000002
aF-1.9000000000000006
aF-2.0000000000000004
aF-4.0
aF-2.2000000000000006
aF8.35939022898674
aF-3.2
aF-1.6000000000000003
aF-4.6000000000000005
aF-2.800000000000001
aF-1.9000000000000006
aF-4.6000000000000005
aF8.31425562351942
aF6.644949197769165
aF7.19530673623085
ag1
(g5
S'F\xa3@\xddJ}\x1d@'
p146
tp147
Rp148
aF-3.5
aF7.720776817202568
aF-3.3
aF-3.9
aF-1.7000000000000004
ag1
(g5
S'xz\xd0\xac;\x039@'
p149
tp150
Rp151
ag1
(g5
S'\n>\xba\x86\x8e\x83\x1e@'
p152
tp153
Rp154
ag1
(g5
S'@;\xd5\xc7r\x8a\x1a@'
p155
tp156
Rp157
ag1
(g5
S'\x04\x9f\xaf\xffX\xd6\x1f@'
p158
tp159
Rp160
aF4.426505851745604
aF8.384126570820808
aF-3.8
aF-3.4
aF-4.2
aF-3.6
ag1
(g5
S'\r\xce\xeeM?0\x1a@'
p161
tp162
Rp163
aF-1.5000000000000002
aF6.475339722633362
aF-3.5
aF6.309909921884536
aF8.274569763988255
aF-3.8
aF-3.4
aF-4.2
aF8.285765333473682
aF-3.8
aF-2.3000000000000007
aF-3.6
aF-4.800000000000001
aF8.93070221915841
aF-3.1
aF-2.400000000000001
aF-4.1
aF-4.1
aF-3.8
aF-5.300000000000001
aF-3.1
aF-2.1000000000000005
aF-3.2
aF-3.4
aF-4.7
aF-5.900000000000001
aF-4.3
aF-1.7000000000000004
aF-3.7
aF-4.0
aF-3.3
aF-3.3
aF-4.1
ag1
(g5
S'][K\xcd\x83\x0f\x1b@'
p164
tp165
Rp166
ag1
(g5
S'\xe28L\\\x05q @'
p167
tp168
Rp169
aF-3.8
aF-3.5
aF-3.6
aF8.25212873518467
aF-4.800000000000001
aF-4.7
aF7.726767611503601
aF-4.5
aF-1.9000000000000006
aF-2.2000000000000006
aF-3.5
aF-4.9
aF-3.2
aF-3.4
aF-1.7000000000000004
aF9.045313413441182
aF-4.3
aF-3.4
aF6.647646667063235
aF-3.4
aF-3.3
aI-3
aF-3.700000000000002
aF-1.7000000000000004
aF-2.1000000000000005
aF-3.3
ag1
(g5
S'\xae~y\x9d\xad{\x19@'
p170
tp171
Rp172
ag1
(g5
S'%%\x99\x12\xdd\xa7\x1b@'
p173
tp174
Rp175
aF7.180848476290702
aF-3.7
aF-4.7
aF7.204590994119643
aF-3.6
ag1
(g5
S'X\x7f\xa8\xf0\x19\x03\x1a@'
p176
tp177
Rp178
aF-4.7
aF-3.9
aF-3.5
aF-4.1
aF-3.2
aI-3
aF-3.3000000000000016
aF-3.7
ag1
(g5
S'\x8e1\xcf\xd9\xfa^\x1c@'
p179
tp180
Rp181
ag1
(g5
S'1{\xe0T\x94\xec\x1e@'
p182
tp183
Rp184
aF-3.3
aF-3.1
ag1
(g5
S'\xb1\xb4\x8a\x94b&\x1d@'
p185
tp186
Rp187
aF-2.2000000000000006
aF-1.8000000000000005
ag1
(g5
S'HY\x99\xa42+\x1f@'
p188
tp189
Rp190
aF6.43038500547409
aF8.887559753656387
aF-2.2000000000000006
aF-3.3
aF-4.1
aF-3.6
ag1
(g5
S'.{\xf3\xb8\x04V\x1e@'
p191
tp192
Rp193
aF-2.1000000000000005
aF-1.8000000000000005
aF-3.9
aF-2.1000000000000005
aF7.7492042317986485
aF-3.5
aF-2.2000000000000006
aF-4.6000000000000005
aF-4.7
aF-3.6
aF-3.4
aF7.243640530109405
aF-3.6
aF-3.2
aF8.692777950363233
aF-5.4
ag1
(g5
S'%l\xc4\xd6\xa2\xac\x1e@'
p194
tp195
Rp196
aF-6.300000000000002
aF-4.6000000000000005
aF-4.0
aF-4.2
aF-6.000000000000002
aF-3.8
aF-2.2000000000000006
aF-3.5
aF-2.2000000000000006
aF7.439700943231582
aF-3.9
aF-4.0
aF-4.4
ag1
(g5
S'f\x01S\x1d\x9aR!@'
p197
tp198
Rp199
aF-5.0
aF8.103491589426994
aF-3.3
aF-3.4
aF-3.3000000000000016
aF-2.700000000000001
aF-3.4
aF-2.700000000000001
aF-6.200000000000001
aF-3.7
aF-4.1
aF-1.7000000000000004
aF7.5146439172327515
aF-1.4000000000000001
aF-1.9000000000000006
aF-4.7
aF8.59832754433155
aF-4.2
aF8.181574812531471
aF-3.7
aF-3.5
aF-4.4
aF6.409365475177765
aF-3.4
aF-3.3
aF-4.4
aF6.839187197387217
aF-4.3
aF-3.4
ag1
(g5
S'FB\n\x12v\x1e!@'
p200
tp201
Rp202
ag1
(g5
S'\xf5f\x9b,f\x14\x1e@'
p203
tp204
Rp205
aF-4.2
aF-5.900000000000001
aF-3.5
aF-4.3
aF-3.9
aF-4.4
aF-3.4
aF5.697005936503409
aF-3.4
aF-3.4
aF-3.4
aF-4.0
aF8.4664713954553
ag1
(g5
S'c\x0f\xe5\x1c"\xa2\x1d@'
p206
tp207
Rp208
aF-3.5
aF-3.3
aF8.05562977567315
aF7.9487036705017085
aF-3.6
aF-4.0
aF-3.9
aF6.577883676532654
aF8.477356630563737
aF-2.400000000000001
aF-3.8
aF-4.300000000000001
aF-1.5000000000000002
aF-4.5
aF-4.0
aF-3.2000000000000015
aF-3.8
aF-4.9
aF-1.4000000000000001
aF-3.9
aF-3.8
aF5.906244552135467
aF-2.3000000000000007
aF-1.9000000000000006
aF-3.4
aF-4.6000000000000005
aF-1.0999999999999999
aF-4.1
ag1
(g5
S'\x91\xcdf|rN\x1e@'
p209
tp210
Rp211
aF-3.5000000000000018
ag1
(g5
S'\x18\xb7/\x0b\xbd\x00\x1c@'
p212
tp213
Rp214
aF-3.5
ag1
(g5
S'\x02\xd5\xfb\x97\xf7\xcd\x1f@'
p215
tp216
Rp217
ag1
(g5
S'\x95xo~\xf9]\x1e@'
p218
tp219
Rp220
aF-3.4
aF-3.2000000000000015
ag1
(g5
S'\x91\xf0/^\xf9\xc7\x1e@'
p221
tp222
Rp223
aF7.0700886130332945
aF-3.4
aF-3.8
aF-4.1
aF-3.4
aF-3.5
aF-3.5000000000000018
aF-3.9
ag1
(g5
S'C\xeeV\x91\n\xf3\x1b@'
p224
tp225
Rp226
aF-3.5
aF-4.3
aF-3.8
aF-5.700000000000001
aF-2.0000000000000004
aF-1.8000000000000005
aF-2.0000000000000004
aF-3.5
aF-3.3
ag1
(g5
S'&\xcct\xb5_\xa7\x1c@'
p227
tp228
Rp229
aF-2.1000000000000005
aF-4.7
aF-3.6
aF-3.9
aF-3.5
ag1
(g5
S'\xec\t#\xc7R;\x1c@'
p230
tp231
Rp232
aF-3.4
a.