(lp0
F-4.3
aF-6.300000000000002
aF-3.9000000000000004
aF-4.6
aF-5.4
aF-5.1000000000000005
aF-8.999999999999996
aF-3.2
aF-3.6
aF-7.8
aF-5.900000000000001
aF-7.300000000000001
aF-6.899999999999996
aF-7.600000000000001
aF-3.9
acnumpy.core.multiarray
scalar
p1
(cnumpy
dtype
p2
(S'f8'
p3
I0
I1
tp4
Rp5
(I3
S'<'
p6
NNNI-1
I-1
I0
tp7
bS'H)\xb4f\x1dr\xe7?'
p8
tp9
Rp10
aF-6.399999999999999
aF-3.8
aF2.216705322265625
aF-6.300000000000002
aF-4.6000000000000005
aF-8.1
aF-5.100000000000001
aF-7.300000000000001
aF-4.1
aF-6.000000000000002
aF-5.799999999999997
ag1
(g5
S'*cr\x0b\xa6\xf6\x19@'
p11
tp12
Rp13
ag1
(g5
S'\x9eY\xa06\x07+\x11@'
p14
tp15
Rp16
ag1
(g5
S'\xc6o\x18$2A\x05@'
p17
tp18
Rp19
aI0
aI-3
aF-3.2
aF-6.299999999999997
aF-6.500000000000003
aF4.973243433237074
aI-3
aF-4.700000000000001
ag1
(g5
S'\x8f\x9d\x8b\x91\x06_ @'
p20
tp21
Rp22
aF-4.6000000000000005
aF-3.6
aF-3.3
aF-3.9
aF-3.4
aF-3.8
aF-3.7
aF4.698307113349436
aF-4.4
aF-4.000000000000002
aF-3.5
aF-3.7
aF-5.900000000000001
aF-3.800000000000002
aF-4.5
aF-3.3
aF-3.700000000000002
aF-5.200000000000001
ag1
(g5
S'\xbb\xe1o\xa6&\x0b\x1b@'
p23
tp24
Rp25
aF-3.8
aF-6.000000000000002
aI0
aI-3
aF-3.9
aF-3.600000000000002
aF-3.2
aF-4.700000000000001
aF-3.4
aF-4.800000000000001
aF-3.5
aF9.182951840758324
aF-4.2
ag1
(g5
S'B}@+\x0b\xed\x1f@'
p26
tp27
Rp28
aF-4.1
ag1
(g5
S'j\x12\x9b{7\xb9\x1d@'
p29
tp30
Rp31
aF8.725150270760059
aF-4.0
aF-4.1
aF-3.9
aF-3.1
aF-3.7
aF-3.7
aF-1.2
ag1
(g5
S'\x8b\x1c\xbd\xde:\xe0\x1e@'
p32
tp33
Rp34
aF-0.7999999999999999
ag1
(g5
S'$\xf0X\x83I\x94\x18@'
p35
tp36
Rp37
aF-0.8999999999999999
aF-3.5000000000000018
ag1
(g5
S'\xb9D\x87G\xad8\x1e@'
p38
tp39
Rp40
aF-3.6
aF-7.000000000000002
aF8.982792775332928
aF-3.4
aF-3.6
aF-4.6
aF-3.4000000000000017
aF-3.7000000000000024
aF-7.6
ag1
(g5
S'\x1c\x98\xa0\xf81\xc0 @'
p41
tp42
Rp43
aF-0.8999999999999999
aF-4.400000000000001
aF9.108726047724485
aI-3
aF-3.8
aF5.754605162143704
aF-3.1
ag1
(g5
S'\x9f\xf3\xb5l\x112\x1a@'
p44
tp45
Rp46
aF-3.3000000000000016
aF-3.1000000000000014
aF-6.600000000000001
aF-3.5
aF-3.6
ag1
(g5
S'X\x96\xd1%>u\x1a@'
p47
tp48
Rp49
aF-4.0
aF-3.7
aF-4.0
aF-3.4
aF-3.2
aF-1.4999999999999998
ag1
(g5
S'\xfam\x06ql\xe0\x1e@'
p50
tp51
Rp52
aF-3.5
aF9.21709236651659
aF-3.5
aF7.240279091149567
aF-3.5
aF-4.1
aF-4.0
aF-3.6
aF-6.500000000000002
aF9.51039409674704
aF9.104607880115509
aI0
aI-3
aF-4.2
aF-4.0
aF-4.4
aF9.167698001861572
aF-5.0
aF-4.0
aF-5.200000000000001
aF-5.4
aF-5.1
ag1
(g5
S'\x04\x9d\xf87rW @'
p53
tp54
Rp55
aF-7.6000000000000005
aF-4.7
aF-3.6
aF-4.2
aF-0.7999999999999999
aF8.37027807533741
aF-4.0
aF9.233142375946045
aF-3.2000000000000015
aF9.036197032034398
aF-3.1000000000000014
aF-5.000000000000001
aF-3.6
aF-4.0
aF-3.6
ag1
(g5
S'Fr\xfb\xfd{\xd7\x1e@'
p56
tp57
Rp58
aF-4.699999999999999
aF-3.5
aI0
aF-0.8999999999999999
aF7.20177317559719
aF-1.1
aF-3.8
aF-1.0
aF-5.300000000000001
aF-3.7
aF-0.8999999999999999
aF-8.000000000000004
aF5.49861569420318
ag1
(g5
S'\xaa:o\xfb#P\x1f@'
p59
tp60
Rp61
aF-6.500000000000002
aF6.074440169334411
aF-1.2999999999999998
aF-4.6
aF9.23491062745452
aF-3.2
aF-8.2
aF9.14524836987257
aF-5.8000000000000025
aF-5.900000000000001
ag1
(g5
S'\xdeK\x9e\xef\x82{ @'
p62
tp63
Rp64
aF-3.8
aF-4.2
ag1
(g5
S"'$\xbavhn\x1f@"
p65
tp66
Rp67
aF-4.4
ag1
(g5
S'\xe6TK\xba\xf6m\x1c@'
p68
tp69
Rp70
aF-3.8
aF-1.1
aF-3.9000000000000017
ag1
(g5
S'\xf8\xfa\x9a\xfd\\"!@'
p71
tp72
Rp73
aF9.493835250288248
aF-0.7999999999999999
ag1
(g5
S'3\xd5i%r\xb8 @'
p74
tp75
Rp76
aI-3
ag1
(g5
S'\xef\xc2{m=a\x1e@'
p77
tp78
Rp79
ag1
(g5
S'\xcf)\x1f\xbdY\xe3 @'
p80
tp81
Rp82
aF-3.4
ag1
(g5
S'M\x96\xd9\xee<\xcd @'
p83
tp84
Rp85
aF9.209325611591339
aF-5.900000000000001
aF7.034704789891839
aF-3.9
ag1
(g5
S'\xbf\xad\x1d\xbc^\xf5 @'
p86
tp87
Rp88
aF8.935588064789773
aF-3.5000000000000013
aF9.254384560137987
aF-4.000000000000002
ag1
(g5
S'\xa6\xd2t%\xbfH\x16@'
p89
tp90
Rp91
aF7.209246329963207
aF-5.200000000000001
aF-4.900000000000001
aF-3.8
aF9.221774838864803
aF5.943594424426554
aF-5.300000000000001
aF-0.8999999999999999
aF-4.300000000000001
aF-4.000000000000002
aF-4.700000000000003
aF8.29830339550972
aF9.140473875030874
aF-3.700000000000002
aF9.210778631269932
aF8.121824315190315
aF-3.7
aF8.956988002359868
aF8.6372005879879
ag1
(g5
S'\x8e\xbf|[\xbb2 @'
p92
tp93
Rp94
aI0
aI-3
aF-3.500000000000002
aF-4.800000000000001
aF8.84365202486515
aF-0.8999999999999999
aF-3.800000000000002
aF-3.7
aI-3
ag1
(g5
S'(g\x0c\xb0\x97C!@'
p95
tp96
Rp97
aF-3.5
aF9.4202985111624
aF9.171920463442802
ag1
(g5
S'\xa2\xbfj\xdf\xf9$ @'
p98
tp99
Rp100
aF-5.2
ag1
(g5
S'\x1f\xf9\xb9\xf2\x1at\x1f@'
p101
tp102
Rp103
aF-4.2
aF8.074348252639174
aF8.81084303855896
aF-0.7999999999999999
aF-3.5
aF-4.0
aF-3.6
aF9.469855217263103
aF-4.8
aF3.4238688230514525
aF-4.200000000000002
aF-3.7
aF-0.7999999999999999
aF9.242889198660851
aI0
aF8.963304007053376
aF-3.7
ag1
(g5
S'b\xfc~\xed\xce\xac @'
p104
tp105
Rp106
aF8.65004794895649
aF-4.0
aF9.00799382328987
aF-3.8
aF-0.8999999999999999
ag1
(g5
S'\x7fl\xdb\x0f9` @'
p107
tp108
Rp109
aF-1.2
aF-7.300000000000001
aF-4.7
aF-3.100000000000002
aF-4.9
aF-4.7
aF8.152476495504379
aF-4.2
aF9.37628256957978
aF8.83469524681568
aF-3.5
aF-3.600000000000002
aF-3.4
aF6.100658282637594
aF9.506634969636798
aF9.392360361851752
aF9.37392415702343
aF9.17428221553564
aF9.194893768429756
aF-5.099999999999999
aF-4.3
aF-3.2
aF-3.3
aF-3.3
aF-5.900000000000001
ag1
(g5
S'\xe2\x10\xbck\xc1\xe2\x1f@'
p110
tp111
Rp112
aF9.361520214378833
aF7.30435236096382
aF-3.6
aF9.23932637013495
aF-3.6
aF-4.000000000000002
aF-3.6
aF8.479665079712868
aF8.90705943107605
aF-3.6
aF-3.5
aF9.416583936661482
aF-4.800000000000001
ag1
(g5
S'\xec\xfcL\xe8`\xbc\x1b@'
p113
tp114
Rp115
aF-3.2
aF-4.8
aF8.674820071458816
aF-3.3000000000000016
aF7.420258356630802
aF-3.5
aF-3.7
aF-4.9
aF-3.0000000000000013
ag1
(g5
S'_\x19d\xff\xad\x19\x1e@'
p116
tp117
Rp118
ag1
(g5
S'\xb4\xdei>\x9b\x9b\x1f@'
p119
tp120
Rp121
aF9.144257947802544
aF-3.2
aF-5.0
aF-3.400000000000002
aF-3.3
aF-5.6
aF-5.700000000000001
aF-4.0
aF9.441566037386655
aI0
aI-3
aF-4.699999999999999
aF8.774093428254128
ag1
(g5
S'\xce\xa3\x1e\xd7\x8f\xb2\x1e@'
p122
tp123
Rp124
aF-3.3
ag1
(g5
S'\x80\xe9ty\t \x1e@'
p125
tp126
Rp127
aF9.511062469705939
aF9.014379787445069
aF-6.200000000000001
aF9.276989133656025
aF-5.4
ag1
(g5
S'd\x99\xf0a\x897 @'
p128
tp129
Rp130
aF7.42778965383768
ag1
(g5
S'\x04\xf4\xfe0\xa7\x98 @'
p131
tp132
Rp133
aF5.591480863094329
aF-5.900000000000001
ag1
(g5
S'\x99\xa4\x01\xde\xc1_!@'
p134
tp135
Rp136
aF-3.2
aF-3.5
aF-5.700000000000001
ag1
(g5
S'P3\xe6\xbb\xe1\x8f\x14@'
p137
tp138
Rp139
ag1
(g5
S'\x9a/6(\x9f`\x1f@'
p140
tp141
Rp142
aF8.9059519007802
aF-6.1000000000000005
aF-6.500000000000001
aF-3.6
ag1
(g5
S'\xd7\x1a\xee8\x88\x1b @'
p143
tp144
Rp145
ag1
(g5
S'\xe7\x18\xa1\x97\x15\x0c\x1d@'
p146
tp147
Rp148
aF9.39588327051606
aI0
aF8.46995419114828
ag1
(g5
S'\t\x82\xf5\xcdS\x80\x16@'
p149
tp150
Rp151
aF8.5963804067811
aF-3.2
aF-4.2
aF-6.600000000000001
aF-3.2
ag1
(g5
S'|\xd7\xe8\xa0\x96t\x1e@'
p152
tp153
Rp154
ag1
(g5
S'~F\x8cx\x0f0!@'
p155
tp156
Rp157
aF-3.5
aF9.093910263478756
aF-4.000000000000002
ag1
(g5
S'J\xb8AZ\xea:\x1d@'
p158
tp159
Rp160
ag1
(g5
S'\xd4l\xccG\xa3\xb4\x19@'
p161
tp162
Rp163
aF-3.7
aF-5.200000000000001
aF-3.6
aF-5.1000000000000005
aF-3.2
aF-4.1
aI-3
ag1
(g5
S'\xbaP\x01Y\x90\x0e @'
p164
tp165
Rp166
aF-3.4000000000000017
ag1
(g5
S'{pc\xdf),\x19@'
p167
tp168
Rp169
aF-8.2
aF5.260922734811903
aF8.80526868030429
aF-4.5
aF-5.1
aF-3.3000000000000016
aF-3.8
aF8.60351583659649
aF-3.8
aF8.558461204916238
aF-3.8
ag1
(g5
S'\x7f`\xdf\xf5\xbf\x08\x1c@'
p170
tp171
Rp172
aF-4.4
aF8.503159743547439
aF7.816513791680336
aF9.067415827512741
aI-3
ag1
(g5
S'.\xd6Y\x1b\xae\xb7\x1e@'
p173
tp174
Rp175
ag1
(g5
S'N\x8b\x9a\xd6\x03#\x19@'
p176
tp177
Rp178
aF8.196924354927614
aF-3.2
aF-3.1
aF-5.600000000000001
ag1
(g5
S'\x7f\x96\xab^,\x1b @'
p179
tp180
Rp181
aF-5.800000000000001
aF9.096882016211747
aI-3
aF-3.4
ag1
(g5
S'/Qp\x14\xc1\x00\x1d@'
p182
tp183
Rp184
aF-3.4
aF7.484809835255145
ag1
(g5
S'\xb8\xd2\xef\xe4+=\x1f@'
p185
tp186
Rp187
aF-3.6
aF8.656761687994003
ag1
(g5
S'B\xd3{w\x89\x1c\x1b@'
p188
tp189
Rp190
aF9.06749632898718
aF-3.5000000000000018
aF-3.8
aF9.325991651415825
ag1
(g5
S'3\x86\x8bJ\x16\xb3 @'
p191
tp192
Rp193
aF-3.6
ag1
(g5
S'\xd6\xbe\x982!\xb5\x1c@'
p194
tp195
Rp196
aF-3.6
aF7.855445164442062
aF9.32639729604125
aI0
aI-3
aF-3.4
aF-3.5
aF-3.4
aF-4.6
aF9.032664092630148
aF9.098138430714608
aF-6.500000000000001
aF9.324213267862797
ag1
(g5
S'^er\xd4\x96\x7f\x1f@'
p197
tp198
Rp199
aF7.861894991248846
aF-3.500000000000002
aF9.252327971160412
aF9.342675555497408
aF-3.4000000000000017
ag1
(g5
S'\xab\xd6Y\xfa\x9f\x8f\x1f@'
p200
tp201
Rp202
ag1
(g5
S'\x8b\xbf:\x16l\x99\x1f@'
p203
tp204
Rp205
aF-4.0
aF8.70653250925243
aF-6.500000000000001
aF-3.6
aF-5.700000000000003
aF8.472759437561034
ag1
(g5
S'e\x8f\x86\x86\x04!\x1d@'
p206
tp207
Rp208
aF9.093387897312642
aF8.056177885085344
ag1
(g5
S'a\xdaO\x08\xbct\x15@'
p209
tp210
Rp211
aF-3.300000000000002
aF7.593547506863251
aI0
ag1
(g5
S'-NH\xf5\xa2\xc6 @'
p212
tp213
Rp214
aF9.351195654273033
aF6.19354555606842
aF-4.2
ag1
(g5
S'L\x88\xe4\xa1\xa0. @'
p215
tp216
Rp217
aF9.365185698121786
aF-3.5
aF-3.5
aF7.202601972222327
aF6.852751536667346
aF8.83024775981903
aF9.383065466862172
aF-3.4000000000000017
aF-3.5000000000000018
aF8.244816026091575
aF9.254583848267794
aF-5.1000000000000005
aF-5.900000000000002
aF-3.2
ag1
(g5
S'D\x83\x14\xdf\xe5k @'
p218
tp219
Rp220
aF9.396132582542487
aI-3
aF9.3141662158072
ag1
(g5
S'o\xbfC\xc2\x95\x16 @'
p221
tp222
Rp223
ag1
(g5
S'\x07\xe4-\xebV\xc7\x19@'
p224
tp225
Rp226
ag1
(g5
S'\x87\xbcL\xec\x1ec @'
p227
tp228
Rp229
aF9.245639324188232
ag1
(g5
S'n\xeb\xfe\xff\x0e\xb2\x1f@'
p230
tp231
Rp232
ag1
(g5
S'{;\xacy\x97G\x1e@'
p233
tp234
Rp235
aF9.21408065930009
ag1
(g5
S',\xfc\x9a\x7f>\xfa @'
p236
tp237
Rp238
aF-3.2000000000000015
ag1
(g5
S'\x8a\r\x85A\x19\xc8 @'
p239
tp240
Rp241
aF8.290786391496658
ag1
(g5
S'\xa4\xcc%\xeb\xa7\x81\x16@'
p242
tp243
Rp244
aF-6.1000000000000005
aF-4.6000000000000005
aF-3.3
aF-5.800000000000001
ag1
(g5
S't\xf3p\xa23\xfe\x1c@'
p245
tp246
Rp247
aF-3.5
aF8.478837052732706
aF8.43627013862133
aF-3.3
ag1
(g5
S'\x85\xb4UIn\xfd\x1d@'
p248
tp249
Rp250
aF8.96419674605131
ag1
(g5
S'\xf8\x9b\x94\xc6\xe5\xf3 @'
p251
tp252
Rp253
aF-5.300000000000001
aF8.847795350849628
aF9.421385951340199
aF9.334213548898697
aF9.211354836821556
aF-3.6
ag1
(g5
S'QxM\xd6B\xb5\x1a@'
p254
tp255
Rp256
aF-3.7
aF-3.5
ag1
(g5
S'\x0e\xb63M\x13\x84\x1e@'
p257
tp258
Rp259
aF9.457817058078945
aF-5.1000000000000005
ag1
(g5
S'\x16\xc1\xe7\x90\xfa\x04!@'
p260
tp261
Rp262
aF8.85103231370449
ag1
(g5
S'\xbe\x9e\xe7\xc0\x06&!@'
p263
tp264
Rp265
aF9.148759185522795
aF7.507573011517524
aF8.818855052441359
ag1
(g5
S'\x99\x07\tC\xe0< @'
p266
tp267
Rp268
aF9.597418200969695
aF-4.200000000000002
aF8.563794565200805
aI0
aI-3
aF-3.8
aI-3
aF8.917826810851693
aF-5.200000000000003
aF8.02775861620903
aF-5.200000000000002
ag1
(g5
S'\xc2AN\x0e\x8e| @'
p269
tp270
Rp271
aF9.365815517120064
ag1
(g5
S'!\x9f\xa2.\t\xdd\x1e@'
p272
tp273
Rp274
aF-6.200000000000001
aF9.017542396113276
aF-3.5
aI-3
aF8.999044549302198
aI-3
ag1
(g5
S'\xce"\x8c+\xc1#!@'
p275
tp276
Rp277
aF9.266820823401213
aF8.894307253742591
ag1
(g5
S'\xec\x8d\xd6\xcc\xb0V @'
p278
tp279
Rp280
aF-4.100000000000001
aF8.869212907552718
aF-4.200000000000002
aF9.245206364616752
ag1
(g5
S'\xbe\x06\x8e\xe8_m\x14@'
p281
tp282
Rp283
aF7.785946177504957
aF8.614102720469237
aI-3
ag1
(g5
S'q\xaf\x1f\xdc\x8bg!@'
p284
tp285
Rp286
aI0
aF7.944705700874328
aF9.0666589692235
ag1
(g5
S'y1#\x95~B\x1c@'
p287
tp288
Rp289
ag1
(g5
S'Z+\x9a.\x14\x92 @'
p290
tp291
Rp292
aF-3.7
aF-3.5
aF8.65736382342875
aF-5.8000000000000025
aF-3.6
aF9.593210854381322
aI-3
aF-3.7
aF8.738722907006741
aF8.872529704123735
aF9.292506159842015
ag1
(g5
S'\x03ebB8b @'
p293
tp294
Rp295
aF9.214662513881922
ag1
(g5
S'|\x85\xbe\xa5\x9d\xfd @'
p296
tp297
Rp298
aF8.352487188577651
aF-5.6
ag1
(g5
S'\x9e7\x7fu-\xfa @'
p299
tp300
Rp301
aF-4.6000000000000005
aF8.962628123164176
aF9.273862010054291
aF8.66342934370041
aF9.426574002951384
aF9.183217363059521
aF-3.5
aF9.287836216390133
aF-6.200000000000001
aF-3.4000000000000017
aF-4.0
aF8.727629525214434
aF7.483352596312761
ag1
(g5
S'\xe4\xb4T\r\x86\x99 @'
p302
tp303
Rp304
ag1
(g5
S'\x17l\xc0rT\\ @'
p305
tp306
Rp307
aF8.75434963554144
ag1
(g5
S'A\x19\x01\xf2r\xea @'
p308
tp309
Rp310
aF-3.800000000000002
aF-3.5
a.