(lp0
F-8.799999999999999
aF-4.800000000000001
aF4.205849319696426
aF-3.7
aF-4.5
aF2.377127155661582
acnumpy.core.multiarray
scalar
p1
(cnumpy
dtype
p2
(S'f8'
p3
I0
I1
tp4
Rp5
(I3
S'<'
p6
NNNI-1
I-1
I0
tp7
bS'#}\xca2\xa1\xb7\x12@'
p8
tp9
Rp10
aF-10.199999999999998
aF4.764447844028472
aF-2.1
aF-3.6
ag1
(g5
S'\x12\x9d\xe4\xd6\x9fP\x1e@'
p11
tp12
Rp13
aF4.62909668982029
aF-4.1
aF-5.6000000000000005
ag1
(g5
S'\xf6\xf8S&\x8c\x90\x17@'
p14
tp15
Rp16
aF-5.500000000000001
aF1.7872582793235754
ag1
(g5
S'f\x8f\xd7\xf6\xaa\xe8\x19@'
p17
tp18
Rp19
aF-7.799999999999999
aF5.8705351153388605
aF-3.3
aF-8.099999999999998
ag1
(g5
S'||/\xa0\x0b\xa5\x1d@'
p20
tp21
Rp22
aF-3.4
aF-7.9
ag1
(g5
S'\x00\xad\xf00"Q\x13@'
p23
tp24
Rp25
aF-5.3
ag1
(g5
S'\x03b\xc7\xef\x9e\xd0\x16@'
p26
tp27
Rp28
aF-3.3
aI0
aI-3
aF-4.9
aF-4.0
ag1
(g5
S'W\x05\xfb\xdd}?\x1d@'
p29
tp30
Rp31
ag1
(g5
S'\xad\xd5\x9e\xc6\x1b\xc3\x19@'
p32
tp33
Rp34
aF-3.5
aF-8.399999999999997
aF-6.700000000000002
aF-8.900000000000002
aF-3.6
aF-4.800000000000001
ag1
(g5
S'\x88G\xde\xed\xed\x8a\x1a@'
p35
tp36
Rp37
aF-7.800000000000002
aF-3.7
aF5.629563796520231
aF8.138688945770264
aF-3.4
aF-3.3
aF-3.8
aF6.220909111201761
aF-3.5
aF-3.7
aF-5.800000000000001
aF-3.5
aF-3.800000000000002
aF-3.3
aF-3.7
aF-3.9
aF-3.4
aI0
aF-3.4
aF6.72547586262226
aF-4.6
aF-3.8
aF-3.9
aF-3.3
aF-3.5
aF7.642679929733276
aF3.13547728061676
ag1
(g5
S'\xd0U\x85\xdf\xb8\xb4\x1f@'
p38
tp39
Rp40
aF-3.5
aF-3.7
aF7.720468920841813
aF8.316147220134734
aF-3.9
ag1
(g5
S'l\x15\xf4B\xf4/\x1c@'
p41
tp42
Rp43
ag1
(g5
S'\xa4KO\x90o\xe4\x1d@'
p44
tp45
Rp46
aF5.899401500821112
aF-4.5
ag1
(g5
S'{e\xda\xbe\xb7\xc9 @'
p47
tp48
Rp49
aF-4.4
aF-3.8
aF8.390157988667488
aF-4.6
aF-3.4
aF-3.2
ag1
(g5
S't*\x9e\xe0\x7fa\x1a@'
p50
tp51
Rp52
aF7.8159136205911635
aF-4.0
aF-4.4
aF-4.300000000000001
aF-4.6
aF-3.6
aF7.269137687981128
aF-3.700000000000002
aF-3.3
aF-3.5
ag1
(g5
S'\x98\xd6\x9e\xcf\xaa\x00 @'
p53
tp54
Rp55
aF-1.2000000000000002
aF8.079710924625397
aF-2.3000000000000007
aF-3.8
aF-4.1
aF-1.3000000000000003
aF-6.600000000000001
aF-1.0999999999999999
aF-3.7
aF-3.3
ag1
(g5
S'\xb3\x11}\xc3\xc8P\x17@'
p56
tp57
Rp58
ag1
(g5
S'\x1d\x04>\xb6r\x06"@'
p59
tp60
Rp61
ag1
(g5
S'?\x08|l\xe5\x0c\x12@'
p62
tp63
Rp64
aF-3.5
aF-4.4
aF-3.800000000000002
aF-4.000000000000002
ag1
(g5
S',r%On\xaf\x1b@'
p65
tp66
Rp67
aF-0.8999999999999999
aF-4.0
aF-5.300000000000001
aF-7.400000000000001
aF6.648542523384094
ag1
(g5
S'B\x8b\xaae\xf7q @'
p68
tp69
Rp70
aF-3.4
aF-1.4000000000000001
aF-3.3
aF-3.3
aF8.914027720689774
aF-3.4
aI0
aI0
aF-3.3
aF-4.800000000000001
aF-3.2
aF-0.8999999999999999
aF-3.800000000000002
aF-0.9
aF-3.2
aF-3.7
aF-0.7999999999999999
aF8.464469975233078
aF-3.600000000000002
aF-3.2
aF-3.9
aF8.831990707293153
aF-3.9
aF-0.7999999999999999
aF-6.700000000000002
aF-3.4
aF8.273181915283203
aF-3.9000000000000004
aF-4.400000000000001
aF-0.8999999999999999
aF-5.800000000000001
aF-1.2
aF8.601353381574153
aF6.655036467872558
ag1
(g5
S'T\x95\xf4\xd2\xe9\xba\x1e@'
p71
tp72
Rp73
ag1
(g5
S'\xaaq\xc2\xc3\xe3\x83\x1d@'
p74
tp75
Rp76
aI0
aF-5.1000000000000005
aF9.349342420697212
aF-3.5
aF7.184685671329498
aF-4.6
aF-6.100000000000001
aF8.096164928376675
ag1
(g5
S"\xeb\n\xacI!'!@"
p77
tp78
Rp79
aF-3.4
aF-3.8
aF-3.6
aF-4.2
ag1
(g5
S'\xa7\xcdv\x1f%c\x1e@'
p80
tp81
Rp82
aF-3.8
aF-3.3
aF-3.6
aF-3.9
aF-3.5
aF-3.6
aF-4.500000000000002
aF-4.9
aI-3
aF-4.6000000000000005
aF-4.5
aF-3.2
aF-4.5
aF8.948860924690962
aF-3.9
aF-4.100000000000002
aF-3.1
ag1
(g5
S".\xdbs\x9e\xb6'\x1f@"
p83
tp84
Rp85
aF7.950606435537338
aF9.221255786716938
aF-5.7
aF-4.1
aF8.650467413663865
aF-3.6
aF-3.3
aF7.769539701938629
aF-6.100000000000001
aF-3.4000000000000017
aF-4.2
ag1
(g5
S'\xdc<@\xaa\x0e\x83 @'
p86
tp87
Rp88
ag1
(g5
S'\x1e;Q\xd9v5\x1e@'
p89
tp90
Rp91
aF-3.900000000000002
aF8.938083027303218
ag1
(g5
S'\x14\xe9K\r\x08\xce\x1e@'
p92
tp93
Rp94
aF-4.0
ag1
(g5
S'\xdbq\xdfkd^!@'
p95
tp96
Rp97
aF8.414807873219251
aF-3.6
aF-4.6
aF-4.1
ag1
(g5
S'\xb0\xcf\x97j\x06\x96 @'
p98
tp99
Rp100
aF8.408503276109695
ag1
(g5
S'~\xf7\xab\xe4\x9e\xfc\x1b@'
p101
tp102
Rp103
aF7.092738246917724
aF7.156801080703735
aF-4.2
ag1
(g5
S'w~`GwC\x1f@'
p104
tp105
Rp106
aF-0.8999999999999999
aF8.99466288536787
aF7.958643035963178
aF6.1574729681015015
aF6.284014925360679
ag1
(g5
S'\xe6\x86K\xdcq\xd3\x1d@'
p107
tp108
Rp109
aF-3.5
aF-4.0
aF-3.9
aI0
aF-3.700000000000002
aF-4.400000000000001
aF-4.1
aF8.606298124790191
aF-3.6
aF-3.4
aF8.930650699138642
ag1
(g5
S'\xae\xe3\xcc\x8d\xdc\xd4\x1d@'
p110
tp111
Rp112
aF8.699188816547395
aF-3.8
aF-4.9
aF-4.5
aF-1.0999999999999999
ag1
(g5
S'H\xdck \xa5Y @'
p113
tp114
Rp115
aF-0.7999999999999999
aF8.430088531970977
aF-3.8
ag1
(g5
S'\xba8\xbdv\xef\xe9\x1c@'
p116
tp117
Rp118
aF-3.5
aF-0.9999999999999999
aF-3.5
aF-3.3
aF-3.9
aF-3.7
aF-3.9
aF-4.2
aF-5.500000000000001
aF9.416394907981157
aF7.146440349519253
aI0
aI0
aF-3.6
aF-0.7999999999999999
aF8.909547312557697
aF9.05336746647954
aF-3.9000000000000012
aF-5.200000000000001
aF9.083262754511088
aF-3.6
aF-4.0
aF-3.4
ag1
(g5
S'\x90\xa9N\x14\x05\xd5 @'
p119
tp120
Rp121
ag1
(g5
S"y\xfa'\xbd\x08\r!@"
p122
tp123
Rp124
aF8.972616381011903
aF-3.2
ag1
(g5
S'\x94\xe0y\x99\t\xe4 @'
p125
tp126
Rp127
aF-3.3
aF-1.2000000000000002
aF-1.0999999999999999
aF-4.1
aF9.252423150092364
aF8.459699492156506
aF-3.5
aF5.644191896915435
aF8.724382796883583
aF9.08057454302907
aF-1.4000000000000001
aF-5.700000000000001
aI-3
ag1
(g5
S'\xce\xc9\xf6\x04\xd7\x82 @'
p128
tp129
Rp130
aF-5.700000000000001
aF-4.300000000000001
aF8.903183810412884
aF-3.9
aF-3.6
aF8.790962600708008
ag1
(g5
S' \xa9\x1a\xde\xad\xf0\x1f@'
p131
tp132
Rp133
aF-5.6000000000000005
aF-3.5
aF-4.1
aF-4.6000000000000005
aF-3.7
aF8.60254135131836
aF-4.0
aF8.540154007077216
aF-1.5000000000000004
aF-5.199999999999999
aF-3.7
ag1
(g5
S'i\x04\xdc\x15\x9a\\ @'
p134
tp135
Rp136
aF-4.1
aF7.349866635724902
aF8.683960610628128
aF8.557824075222015
ag1
(g5
S'Y\x83\xf1\xa4\x00W\x1f@'
p137
tp138
Rp139
aF-4.4
aF-5.600000000000001
aF-4.2
aF-4.700000000000001
aF9.007651309669019
ag1
(g5
S'\x86\x85\xbe\xeb&Z\x1f@'
p140
tp141
Rp142
aF-4.7
aF7.761663047969341
aF-4.7
aF8.832356289029121
aF-3.3
ag1
(g5
S'\x9e\x11\xe9\x95#V @'
p143
tp144
Rp145
aF-0.8999999999999999
aF7.316347345709801
aF8.388162037730217
aI0
aI0
aI-3
ag1
(g5
S'\x1c\xf3\xf7\xa6H\xca @'
p146
tp147
Rp148
aF-4.2
aF-0.9999999999999999
aF-4.1
ag1
(g5
S'v\x80BO\xf8H\x1c@'
p149
tp150
Rp151
aF-5.300000000000001
aF9.15674831867218
aF-4.5
aF-6.0
aF-1.2
aF-4.7
aF-4.7
aF-6.900000000000002
aF-0.8999999999999999
aF-4.0
aF-4.1
aF-5.000000000000001
aF7.263589835166931
aF-3.5
aF-3.9
aF-3.7
aF-3.1000000000000014
aF-3.2
aF-5.6
aF-3.2
aF-4.000000000000002
aF-4.6000000000000005
aI0
aI0
aF-4.0
aF9.44411670640111
aF-3.7
ag1
(g5
S'`\xb1\xefYF\xd4 @'
p152
tp153
Rp154
ag1
(g5
S'\xb9}(\xe7\x87\xe8\x1f@'
p155
tp156
Rp157
ag1
(g5
S'\xcb\xa3O\xf4\x1f\x85!@'
p158
tp159
Rp160
aF-3.6
aF-6.200000000000001
aF9.268195232748985
aF-1.1
aF-5.4
ag1
(g5
S'g\xc7\x967\x9c\xa1 @'
p161
tp162
Rp163
aF-1.0
aF-4.9
aF-3.1
aF-3.1
aF-4.9
aF-3.6
aF8.580326701700688
ag1
(g5
S'heNr\x16\\ @'
p164
tp165
Rp166
a.