(lp0
F4.868790318816902
aF-6.700000000000002
aF-7.100000000000001
acnumpy.core.multiarray
scalar
p1
(cnumpy
dtype
p2
(S'f8'
p3
I0
I1
tp4
Rp5
(I3
S'<'
p6
NNNI-1
I-1
I0
tp7
bS'6\x80\x8c6\xe2\n\x1b@'
p8
tp9
Rp10
aF-3.5
ag1
(g5
S'\xee#\x85\x07\xb0\xea\x17@'
p11
tp12
Rp13
aF-4.4
aF-6.400000000000002
ag1
(g5
S'D\xdc\x8f%\xd44 @'
p14
tp15
Rp16
aF-4.0
ag1
(g5
S'<\xfb\x1f\xeb{\x9d\x1f@'
p17
tp18
Rp19
ag1
(g5
S'\xbc\xac\x825Y]\x19@'
p20
tp21
Rp22
ag1
(g5
S'\xbb6M%g{\x1b@'
p23
tp24
Rp25
aF-4.5
aF-7.29999999999999
aF4.348432308435443
aF-4.2
aF-4.0
aF-4.1
aF6.229981625080107
aF-5.600000000000001
aF6.3815160393714905
aF-5.899999999999995
ag1
(g5
S'4i\x82\x85\x86^\x1b@'
p26
tp27
Rp28
aF8.131493294239045
aF-4.5
aF4.7951069826493065
aF-3.5
aF-3.3
aF-3.4
ag1
(g5
S'\xabbc[p\xd2\x13@'
p29
tp30
Rp31
aF-3.8
aF-4.5
aF5.7152181267738325
aF-3.4
aF3.854880310595041
aF-5.1000000000000005
aF-3.3
ag1
(g5
S'\xe0\xed\xb8\x95\x113 @'
p32
tp33
Rp34
aF-4.800000000000001
aF-4.0
aF7.593883472681045
aF-4.7
ag1
(g5
S'\x91\x83\x1aX?\xdc\x16@'
p35
tp36
Rp37
aF6.290734253823755
ag1
(g5
S'4\xfbzF\xf9\x83\x1c@'
p38
tp39
Rp40
aF-5.200000000000001
aF-3.7
aF-3.4000000000000017
aF-5.600000000000001
aF-6.000000000000002
aF-4.4
aF-3.9
aF-3.7
aF-4.5
aF-3.4
aF-4.200000000000001
ag1
(g5
S' \xe66\xc2\xd1\xb5\x1f@'
p41
tp42
Rp43
aF-3.1
aI-3
aF-6.300000000000002
aF-4.4
aF5.030438303947449
aF-4.4
aF-3.2
aF-3.2
aF-4.6000000000000005
aF-4.6000000000000005
ag1
(g5
S'\xa8\xe2\xfb\xe2\xbc\xee\x1e@'
p44
tp45
Rp46
aF-3.2
aF-4.6000000000000005
aF-4.1
aI-3
aF-5.600000000000001
ag1
(g5
S'TH\xb1\xfe\xdd\xff\x1d@'
p47
tp48
Rp49
aF-3.8
aF-1.9000000000000006
aF-4.1
ag1
(g5
S'r\xa5\x06\x93\x19X @'
p50
tp51
Rp52
aF-3.7
ag1
(g5
S'\x1c0\x0b:u\x80\x1b@'
p53
tp54
Rp55
aF-3.2000000000000015
aF-3.7
aF-2.0000000000000004
aF7.543920531868935
aF-3.4
aF-4.7
aF-5.700000000000001
aF6.9996212244033815
aF6.981433844566345
aF-5.700000000000001
aF7.474870908260345
aF-3.4
aF-4.5
aF7.5876439869403836
aF-3.7
aF-5.600000000000001
aF-3.5
ag1
(g5
S'\x07u\xbc?\xc1\x93\x1c@'
p56
tp57
Rp58
ag1
(g5
S'\x12\xe1\xcf\xc0\xf2\xe8\x1c@'
p59
tp60
Rp61
aF-4.4
aF-3.4
aF-3.5
aF-3.7
ag1
(g5
S'\x87\x02Flh\xd2\x1b@'
p62
tp63
Rp64
aF8.529519113898278
aF-3.9
aF-4.5
aF-3.7
aF-2.1000000000000005
aF-4.1
aF-3.2
aF-2.1000000000000005
aF-3.5
aF8.340651638805866
aF-3.9
ag1
(g5
S'\x86\x8d\xfb%\xaf\xcc\x1a@'
p65
tp66
Rp67
ag1
(g5
S'\xbbh\xdcT\x84\x18\x1e@'
p68
tp69
Rp70
aF-3.5
aF-3.9
aF-4.1
aF-3.2
aF-4.9
aF-3.6
aF-3.2
aF-3.2
ag1
(g5
S'\x90\xd9\x0c&\xb9H @'
p71
tp72
Rp73
aF7.720791149139404
aF-3.4
aF-4.2
aF-3.8
aF-3.9
aF-3.6
aF-3.3000000000000016
aF-4.3
aF-5.4
aF-3.1
aF-3.2
ag1
(g5
S'A\xfc\x94\x98>g\x1d@'
p74
tp75
Rp76
aF-3.4
ag1
(g5
S'\\\xa1\xdf\x0f\x97\x03 @'
p77
tp78
Rp79
aF-3.2000000000000015
aF-3.4
aF-4.7
aF-4.2
ag1
(g5
S'\xce\x0f\xf7\xbfR\xa7\x1b@'
p80
tp81
Rp82
aF-3.6
aF-3.4
aF-3.8
aF8.08540403842926
aF-5.4
aF-3.8
aF-3.6
aF-4.6000000000000005
aF-6.000000000000002
aF7.431462085247039
ag1
(g5
S'1\xbd\xb9K\x80\x8b\x1e@'
p83
tp84
Rp85
aF-6.200000000000001
aF-3.6
aF8.367036670446396
aF-3.9
aF-4.6000000000000005
aF-4.800000000000001
aF-4.1
aF9.385268855839968
aF8.724636113643646
aF-3.9
aF-4.4
aF-3.3
ag1
(g5
S'\xa2\xfd\x80\x12\xd3\x1a\x1f@'
p86
tp87
Rp88
aF-3.4000000000000017
ag1
(g5
S'\xa4\t.\xe2\xc3P\x1d@'
p89
tp90
Rp91
aI-3
aF-3.6
aF-4.1
aF-4.5
ag1
(g5
S'1>\xbd\xbf\xa7\xe7\x1b@'
p92
tp93
Rp94
aF-3.7
aF-4.4
aF-4.0
aF7.913698732852936
aF-3.4
aF-3.8
aF8.455724385380744
aF-3.9
aF-5.700000000000001
aF-5.200000000000001
ag1
(g5
S'T\xe5Z\x9e\xdf\x85 @'
p95
tp96
Rp97
aF-3.4000000000000017
aF8.155096815526486
aF-4.1
aF-6.200000000000001
ag1
(g5
S'W\x92\xf5\xd6\xb2\x11\x18@'
p98
tp99
Rp100
ag1
(g5
S'\xd0\xd4v\x11W\x90\x1e@'
p101
tp102
Rp103
aF-3.8
aF8.867410150170326
ag1
(g5
S'p/9\xab\xf6\xc2\x1c@'
p104
tp105
Rp106
aF-3.8
aF-5.800000000000001
aF-4.6000000000000005
aF-3.7
ag1
(g5
S'\xa5\x16\xe4~\xca2!@'
p107
tp108
Rp109
aF-3.2
aF7.224206852912903
aF9.275422126054764
aF7.948143082857132
aF-3.5
aF8.865656846761704
aF-4.1
aF6.600893640518188
ag1
(g5
S'\xb0\x9dO\xab\xd7\xa6 @'
p110
tp111
Rp112
aF-3.4
aF-4.0
aF-4.7
aF-4.4
aF-5.600000000000001
aF-3.4000000000000017
ag1
(g5
S'Q\xf3\xde\x11\xd7= @'
p113
tp114
Rp115
aF-3.9
aF-3.7
aF-3.9
aF8.167456990480423
aF-3.9
aF-3.9
aF-3.6
aF-4.7
ag1
(g5
S'\xc3p[\xbfh\x90\x1b@'
p116
tp117
Rp118
ag1
(g5
S'@6\x07\xe0\x1e\xfc\x18@'
p119
tp120
Rp121
aF-3.1
aF-3.3
aF-5.0
aF-5.0
aF-3.5
aF-4.9
aF-3.7
aF-3.4
aF-4.2
ag1
(g5
S']\xba\x9c\x0cHH\x1f@'
p122
tp123
Rp124
aF6.311199158430098
aF-4.7
aF9.624946812912821
aF-4.7
aF-4.6000000000000005
aF7.605908142030239
aF8.86907854527235
ag1
(g5
S'`\xa3;\x92\x01\xd0\x1e@'
p125
tp126
Rp127
aF-3.6
ag1
(g5
S'lBaF\x9a\xa9\x1d@'
p128
tp129
Rp130
aF-3.2000000000000015
aF-4.7
aF8.49608489871025
ag1
(g5
S'\x8c\x03\xbby3\xf9\x1f@'
p131
tp132
Rp133
ag1
(g5
S'\x04E\x11`mS\x1a@'
p134
tp135
Rp136
ag1
(g5
S'\x9ck\xef\x80\t\x17\x1d@'
p137
tp138
Rp139
aF-3.2
aF-5.300000000000001
aF-3.0000000000000013
aF-3.5
aF-3.8
aF-2.800000000000001
aF-4.1
ag1
(g5
S'K\x9c!\xe7\xd1\x0f!@'
p140
tp141
Rp142
aF-5.200000000000001
aF-4.2
aF9.04878634288907
ag1
(g5
S'\xe0\xc7\x0f\xb7\x92\xc1\x1e@'
p143
tp144
Rp145
aF-4.4
aF8.436966020613909
aF-5.800000000000001
aF-4.1
aF-4.1
aF-3.8
aF-4.1
aF-3.600000000000002
aF9.240550436079502
aF-5.200000000000001
ag1
(g5
S'\xfe\xb3\xe9\xe8\x8d\xe2\x1e@'
p146
tp147
Rp148
aF8.752768881618977
aF-3.9
aF-3.5
aF-3.6
aF8.310048067569733
aF-3.2000000000000015
aF8.659270228631794
aF-4.1
aF-3.5
aF-3.7
aF-4.1
ag1
(g5
S'^!\x96F\xaf\x81\x1d@'
p149
tp150
Rp151
ag1
(g5
S'f(\xc4E5\xca\x1e@'
p152
tp153
Rp154
aF-4.1
aF-3.4000000000000017
aF-4.4
ag1
(g5
S'\xd4\xb8\x87\xc8E\x8e @'
p155
tp156
Rp157
aF-4.3
aF-4.800000000000001
aF-4.5
aF-3.5
aF-4.2
aI-3
aF-5.0
ag1
(g5
S'\r\x03?\xd2\xdd\x00 @'
p158
tp159
Rp160
aF-3.2
ag1
(g5
S'\xc1o\xd5\x17\x97\xea\x1e@'
p161
tp162
Rp163
aF7.388820682466029
aF-3.7
aF-3.7
ag1
(g5
S'\xcb\xc8Q,\xbc\xd4\x1d@'
p164
tp165
Rp166
aF9.035522159934043
aF-6.500000000000002
aF-4.9
aF-4.1
aF7.227041161060333
ag1
(g5
S'.\xdf\xddYj\r @'
p167
tp168
Rp169
aF5.553683029115199
aF-3.5
aF-3.3
aF7.480577310919761
aF8.294501793384551
aF8.70979395247996
aF-3.7
aF-3.8
aF-4.6000000000000005
aF-3.9
aF7.930173379182816
aF-4.800000000000001
aF-3.8
aF-4.100000000000001
aF7.644340592622756
aF-3.3
aF-4.0
ag1
(g5
S'\x9d\x19\xdd\xaa+B\x1b@'
p170
tp171
Rp172
aF8.622476822882891
aF-2.3000000000000007
aF-4.4
ag1
(g5
S'\xc2;\x19\x1a\xa0\xd3\x16@'
p173
tp174
Rp175
ag1
(g5
S'\x98\\Y\xa1\xfcQ @'
p176
tp177
Rp178
ag1
(g5
S'q\xd2\xe7\xe6\x7fH\x1a@'
p179
tp180
Rp181
aF-4.2
aF-4.5
ag1
(g5
S'\x07T\xb0\xa3\x14\x10\x1d@'
p182
tp183
Rp184
aF-4.9
aF-5.500000000000001
aF-4.1
aF-4.0
aF-3.2
ag1
(g5
S':\xa7\x16RY\x13\x1e@'
p185
tp186
Rp187
aF-4.800000000000001
aF7.8555476948618885
aF-5.900000000000001
ag1
(g5
S'9W\x1ajo4 @'
p188
tp189
Rp190
ag1
(g5
S'\x86\x8fQ\xca\xe43\x1c@'
p191
tp192
Rp193
ag1
(g5
S'q\x8a\xc8\xc8\xd1\xe7\x1b@'
p194
tp195
Rp196
aF-3.6
aF-3.6
aF-2.2000000000000006
aF8.07428189665079
aF-3.3
aF-2.2000000000000006
aF-3.3
aF7.719562417268753
aF6.355213594436646
aF8.967856848612428
aF-3.5
aF7.241255985200404
aF-3.6
aF-4.2
ag1
(g5
S'\xf4 ^\x92g\x1a\x1c@'
p197
tp198
Rp199
aF8.44021443426609
aF8.251532523334026
aF-3.3
aF-3.7
aF-4.800000000000001
aF-4.7
aF-2.400000000000001
aF-4.3
aF7.626052157580852
aF7.950973385572434
aF-4.9
aF-3.900000000000002
aF-3.9
aF-5.0
aF-4.3
aF-2.500000000000001
aF-4.800000000000001
aF-3.5
aF-3.9
aF-3.7
aF8.075972531363368
aF7.801685735583305
aF-2.600000000000001
aF6.685005983710288
ag1
(g5
S'\xc3\x83\xc8\x04&\x16\x1d@'
p200
tp201
Rp202
aF-3.8
aF-4.4
aF-5.0
aF-3.4
ag1
(g5
S'\x86A\x92\xf8&v\x1c@'
p203
tp204
Rp205
aF-3.1
aF6.8807995744049535
aF6.159088931977747
ag1
(g5
S'\x90\xfa\x03\x1c%\x9e\x1a@'
p206
tp207
Rp208
aF-4.7
ag1
(g5
S'\xd8dz\xa7\xc8.\x1b@'
p209
tp210
Rp211
aF9.297718033194542
ag1
(g5
S'z\x99\xe1Bn\x7f @'
p212
tp213
Rp214
aF-4.300000000000001
ag1
(g5
S'\xae\xab{\xa0\xa9\x1b\x1d@'
p215
tp216
Rp217
aI-3
aF-5.0
aF-3.6
aF-3.4
aF-4.0
aF7.463717228174209
aF8.389679303765297
aF8.197979269654024
ag1
(g5
S'\xc3/g\x93\xd9\xb5 @'
p218
tp219
Rp220
aF-3.9
aF8.823404951393604
aF-6.600000000000001
aF-3.9
aF-4.6000000000000005
aF-4.2
ag1
(g5
S'\xa0.\xdb\x19z\x13\x1b@'
p221
tp222
Rp223
aF-3.4
aF-3.6
ag1
(g5
S'JZ<\xd9y%\x19@'
p224
tp225
Rp226
ag1
(g5
S'\xea\xcb\x15Cu\x0e\x19@'
p227
tp228
Rp229
aF-5.500000000000001
aF-4.3
aF-2.400000000000001
aF-3.8
aF6.8327234148979175
aF-3.4
aI-3
aF-4.0
ag1
(g5
S'\xe2\xb7\xb5\xe9\x87\x04\x1c@'
p230
tp231
Rp232
aF7.689150772243737
aF-3.5
aF7.754239374399185
aF-5.4
aF7.900892356038093
aF-4.2
aF7.293104931712151
aF-4.800000000000001
aF8.614781883358955
aF-3.6
aF7.769722598791121
aF-5.0
ag1
(g5
S'm\xfay\x05\x1a\x8f\x1f@'
p233
tp234
Rp235
aF7.2679837971925725
aF-4.799999999999999
ag1
(g5
S'Z\x1d\x02\x1a\xc6\xbd\x1c@'
p236
tp237
Rp238
aF8.578297893423587
aF9.326909977570176
aF-3.9
aF-4.4
aF-4.100000000000001
aF-3.7
aF-4.100000000000001
aF-4.3
aF8.152115466818213
aF-3.7
aF7.624105903506279
aF-4.0
aF-4.9
ag1
(g5
S'\xc7D\xdc\xed\xd7\x8c\x1d@'
p239
tp240
Rp241
aF-5.0
aF6.340352731943129
aF-3.5
aF-6.000000000000002
aF-2.3000000000000007
aF7.4190375953912735
aF-4.0
aF-3.4
aF-5.0
aF-4.2
ag1
(g5
S'\x06\x993\xbc\x19\xef\x1d@'
p242
tp243
Rp244
aF4.7781330198049545
aF-4.7
aF-3.3
aF6.23501580879092
aF-5.1000000000000005
aF-3.7
aF-2.500000000000001
aF-3.0000000000000013
ag1
(g5
S'?\xbaH!\xee\xeb\x1b@'
p245
tp246
Rp247
aF7.160176518559455
aF7.265668219327926
aF-3.6
aF-5.700000000000001
aF-5.1000000000000005
aF6.7831822767853724
aF8.050892519205808
ag1
(g5
S'l\xf6R\xffux\x15@'
p248
tp249
Rp250
aF-5.300000000000001
aF-3.800000000000002
aF-4.800000000000001
aF-4.6000000000000005
aF-4.3
aI-3
aF5.752423502504824
aF-7.200000000000001
aF-2.400000000000001
aF-2.400000000000001
aF4.750120021402838
aF-2.400000000000001
aF-3.3
aF6.692282298207282
aF7.843777671456337
aF-3.3
ag1
(g5
S'\x9f?\x0f\xc6#C\x19@'
p251
tp252
Rp253
aF7.207116091251372
aF-5.300000000000001
ag1
(g5
S'R\x9f\xbf\xa6\xcd\xb4\x1a@'
p254
tp255
Rp256
aF6.377199983596801
aF-4.7
aF7.564058762788772
aI-3
aF7.372289273142814
aF-2.600000000000001
aF7.655899728834628
aF-2.700000000000001
ag1
(g5
S'<\x0f\xc9\xfaC\x9e\x1a@'
p257
tp258
Rp259
aF-3.3
aF-4.1
aF-4.800000000000001
aF8.65329627096653
aF-2.1000000000000005
aF-4.0
aF-4.2
aF5.883839596807954
aF5.528987550735472
ag1
(g5
S'gM(\xdbTM\x1d@'
p260
tp261
Rp262
aF-6.500000000000002
aF7.584836927056312
aF-5.500000000000001
ag1
(g5
S'\xcb\xd2\xd8\xdb\x87\xab\x1d@'
p263
tp264
Rp265
aF-7.200000000000001
aF-5.1000000000000005
aF-4.2
aF4.901952570676805
aF5.464040854573248
aF-4.800000000000001
aF-4.1
ag1
(g5
S'\x1b0P\xa2\xc5\x86\x19@'
p266
tp267
Rp268
aF3.7255880288779792
ag1
(g5
S'T(\xfc+\xa1\xd2\x1d@'
p269
tp270
Rp271
aF-3.7
aF-4.2
aF7.801094269752502
ag1
(g5
S'\xd3\x14\x7f\xc8\xf4\xf2\x19@'
p272
tp273
Rp274
aF8.228167749941349
aF7.431226987391709
aF-3.7
aF7.573385909944772
aF-5.200000000000001
aF7.850962620973586
aF-4.1
aF-2.800000000000001
aF8.112896988913416
aF-2.700000000000001
aF-8.099999999999998
aF-2.1000000000000005
aF-6.400000000000002
aF-7.799999999999999
aF-4.800000000000001
aF-5.500000000000001
aF-3.8
aF-2.400000000000001
aF8.871712367981672
aF-3.9
aF-3.5
aF6.557650062441825
aF-4.000000000000002
aF-3.6
aF-4.100000000000001
ag1
(g5
S'\xac*A\xf9\x10E\x1a@'
p275
tp276
Rp277
aF8.095932514220475
ag1
(g5
S'\x90\xbbZ\xd6K\x19\x1b@'
p278
tp279
Rp280
aF-3.4000000000000017
aF-4.5
ag1
(g5
S'\x0c\xf1,;\xfcJ\x1b@'
p281
tp282
Rp283
aF5.64033881574869
aF-4.5
aF-4.1
aF4.27396296262741
aF-5.4
aI-3
aF-3.4
aF7.2429193437099455
ag1
(g5
S'\xbe\xa3\xcdc\x0ca\x1e@'
p284
tp285
Rp286
aF-4.6
aF-2.1000000000000005
aF-2.0000000000000004
aF-3.8
aF9.03590954914689
aF-4.1
ag1
(g5
S'\xfc\xcd\x8f\xc7\xbc\x9e\x1b@'
p287
tp288
Rp289
aF5.996218834817407
a.