(lp0
cnumpy.core.multiarray
scalar
p1
(cnumpy
dtype
p2
(S'f8'
p3
I0
I1
tp4
Rp5
(I3
S'<'
p6
NNNI-1
I-1
I0
tp7
bS'\xfe\x12\xf7\xac0\xcd\x1d@'
p8
tp9
Rp10
aF-3.3
aF-3.7
aF8.082059717178344
ag1
(g5
S'X\x98\xe0\xc40>\x17@'
p11
tp12
Rp13
aF-3.6
aF-5.800000000000001
aF8.367301499843597
aF-3.8
aF-7.4
aF-3.5
ag1
(g5
S'$s\x90\xbc\xe2b\x1c@'
p14
tp15
Rp16
aF-4.5
aF-3.9
aI-3
aF-3.9
aF-3.3
aF6.9018852531909936
aF-4.1
aF-4.0
ag1
(g5
S'$(\x8f\xdf\xd9\xc0\x1c@'
p17
tp18
Rp19
aF7.301524378359317
aF-3.7
aF-4.1
ag1
(g5
S'\xb3&\xa8\x81=j\x1f@'
p20
tp21
Rp22
aF8.312040427327156
ag1
(g5
S'\x19c\x13\x80\xf4\x1c\x1f@'
p23
tp24
Rp25
aF7.132102661579847
aF-5.1
aF7.39797267615795
aF-4.0
aF-5.100000000000001
aF5.745271080732344
ag1
(g5
S'\xads\x1e0\xd9:\x1f@'
p26
tp27
Rp28
aF-3.7
aF-4.4
aF-3.5
aF-5.4
aF-7.7
aF-6.400000000000002
aF-4.2
aF-3.7
aF-4.0
aF7.843911025300622
aF-6.200000000000001
aF-5.099999999999998
aF-5.1000000000000005
aF-6.199999999999995
aF-4.2
aF-3.8
ag1
(g5
S'(!;\xb8`4\x1a@'
p29
tp30
Rp31
aF8.050673216581345
aF-3.4
aF-3.6
aF-3.2
aF-4.7
aI-3
aF7.730361342430115
aF-3.4
aF-4.6000000000000005
aF-6.100000000000001
aF-5.199999999999998
aF-3.5
aF-4.4
aF-4.800000000000001
aF-4.6
aF-3.1
aF-3.8
aF-5.300000000000001
aF-4.5
aF-4.300000000000001
aF-3.6
aF-3.4
aF5.380330540239811
aF-3.5
aF-6.300000000000001
aF-3.4
aF6.523243856430053
aF-5.3
aF-5.100000000000003
aF5.590122610330581
aF-4.000000000000002
ag1
(g5
S'\x9e@\xecF\\\xe5\x14@'
p32
tp33
Rp34
aF-3.2
aF-5.1
aF-3.4
aF-4.5
aI-3
aF-4.4
aF-3.2
aF-3.9
aF-4.0
aF-4.2
aF-5.1
aF-5.600000000000001
ag1
(g5
S'\xa0h\xec&\xb0\xad\x1f@'
p35
tp36
Rp37
aF-3.7
aF7.726033955812454
aF-3.7
ag1
(g5
S"('\xf1<\xf7\xfd\x1f@"
p38
tp39
Rp40
aF-2.400000000000001
aF6.632735154405235
aF-4.9
ag1
(g5
S'\x82\xaf\xb4K\x8fU\x19@'
p41
tp42
Rp43
aF8.842965714260936
aF-4.4
aF-3.7
aF-3.8
aF6.9192751228809355
aF8.283310973644257
aF-3.8
aF-4.2
aF-5.1000000000000005
aF-7.100000000000001
aF-4.8
aF-4.5
aF-4.0
aF-3.4
ag1
(g5
S'\xcc_\x84N*\x82\x1f@'
p44
tp45
Rp46
aF-3.9
aF8.649634976685046
aF-3.3
aF-4.2
aF-6.1000000000000005
aF-5.900000000000001
ag1
(g5
S'\xb4\x96>\x11B|\x17@'
p47
tp48
Rp49
aF-3.6
aF-4.300000000000001
aF-3.4
aF6.180080521106719
aF7.901832470297814
aF-5.300000000000001
aF-3.8
aF-4.300000000000001
aF6.76213144659996
aF9.091172118112445
ag1
(g5
S'^c/\xc7\xd8~\x1f@'
p50
tp51
Rp52
ag1
(g5
S'X\xa6\x18<ja\x17@'
p53
tp54
Rp55
aF-7.100000000000001
aF7.564922400191426
aF9.412065750360489
aF-4.2
aF9.080251652188599
aF8.902691334486008
aF-3.2
aF7.825332364439964
aF-7.3999999999999995
ag1
(g5
S'\x10\x96\r\x0e\xb6^!@'
p56
tp57
Rp58
aF-4.3
aF-3.7
aF8.932939875125886
aF-4.1
aF-3.1
aF7.414787673950196
aF5.69173372099176
aF-3.6
aF-4.5
aF-3.4
aF-3.6
aF-3.1
aF9.386631909757853
aF-3.8
aF-3.3
aF-4.5
aF-4.9
ag1
(g5
S'\xe9u\x16\x02\x12$!@'
p59
tp60
Rp61
aF9.079937920719384
aF-5.3
aI-3
aF8.424356853961944
aF-4.3
aF-6.500000000000002
aF-3.5
aF8.573004561662675
aF-3.7
aF-6.700000000000001
aF7.867746327631176
aF8.862056690454484
aF7.263137552142142
aF-7.700000000000002
aF-3.6
aF-3.8
aF-7.3
aF7.993597009778022
aF-3.9
aF-3.7
aF-4.4
aF7.845990079641342
aF-5.800000000000001
aF7.000178249925375
aF-4.3
aF-4.2
aF-4.1
aF8.42041336297989
aF-3.6
aF-4.1
aF7.52160952091217
aF-4.4
aF-7.000000000000002
aF-3.4
aI-3
ag1
(g5
S'\xb00\xf3\x11\x07\x06!@'
p62
tp63
Rp64
aF9.282303355634212
aF9.140491242706776
aF-4.3
aF-6.900000000000001
aF-3.7
aF-3.4
aF-4.1
aF-3.6
aF9.54601697847247
aF6.6866253463551395
ag1
(g5
S'GP%\x8f\xe1V @'
p65
tp66
Rp67
aF-5.9
aF-4.3999999999999995
aF-3.9
aF9.048526376485825
aF-6.100000000000001
aF-4.0
aF9.073465079814195
aF7.444489891827106
aF7.06015836112201
ag1
(g5
S'\x84Owc\x04R @'
p68
tp69
Rp70
aF5.647882065176962
aF-4.200000000000001
aF7.786286571621894
aF-3.4
ag1
(g5
S'\xc6O\xb4p\xc7\xf2\x1f@'
p71
tp72
Rp73
aF-3.7
aI0
aF-3.1
aF-3.7
aF-6.100000000000001
aF-4.7
aF-4.3
aF-5.600000000000002
aF-3.3000000000000016
aF-3.7
aF9.15343992561102
aF-3.5
aF-4.6
aF5.910397070646284
aF-4.5
aF-6.000000000000001
aF-5.4
aF9.23644133657217
ag1
(g5
S'\xbe\x1f\x14q\xeb\x0f @'
p74
tp75
Rp76
aF4.514647874236108
aF9.153248064219952
ag1
(g5
S'\xfa\x81\xdf\xb4\x17D\x1f@'
p77
tp78
Rp79
aF8.823926892876624
ag1
(g5
S'\xa9yV=\x161\x1e@'
p80
tp81
Rp82
aF-3.3
aI-3
aF-4.100000000000001
aF-4.2
aF-3.3
aF8.591374549269677
ag1
(g5
S'\xf6\xdf\xd4\x98\xe9!!@'
p83
tp84
Rp85
aI0
aF-3.6
ag1
(g5
S'\x9d\x8d4\x86\xf4) @'
p86
tp87
Rp88
aF9.256393523141742
aF-4.7
aF-3.8
aF8.733094573020935
aF7.5879301572218525
aF8.757029666006565
aF-3.8
ag1
(g5
S'\xe6\ttZ\x89!!@'
p89
tp90
Rp91
aF-3.4
aF8.334971690177918
aF-3.3
aF-3.5
aF9.403490241616964
aF-4.5
aF-3.2
aF-4.7
aF-3.9
aF-5.600000000000001
aF-4.900000000000002
aF-3.9
ag1
(g5
S'l\xa5p\xa91\x93\x1c@'
p92
tp93
Rp94
aF-3.3
aF-4.0
aF-5.700000000000001
aF-7.000000000000001
aF-3.7
ag1
(g5
S'p\xca\x01\x89\xc6\xf0\x1c@'
p95
tp96
Rp97
aF-3.7
aF-4.3
aF-3.3
aF-4.6
aF-4.2
ag1
(g5
S'\xfd0\xf7\xf3Z\x1e @'
p98
tp99
Rp100
aF-4.9
aF-3.9
ag1
(g5
S'\xae\xe5\x84r\x0eP\x1f@'
p101
tp102
Rp103
aF5.877440786361695
aF-4.5
aF-4.000000000000002
aF-3.4
aF-3.4
aF-3.4
aF-4.0
ag1
(g5
S'\xdf\xb6\xd3\x91|\xfc @'
p104
tp105
Rp106
aI-3
aF-4.500000000000001
aF-5.200000000000001
aF-6.0
aF-4.5
ag1
(g5
S'\xe9\x98\xdfcZ\xcf @'
p107
tp108
Rp109
aF-5.0
aF-7.2
aF8.828238940238952
ag1
(g5
S'\xc4\xd9\xaa\n\xab,\x1c@'
p110
tp111
Rp112
aF8.601869779825211
aF5.419853830337525
aF-3.4
aF8.373909790813922
aF-3.6
aF8.287175683677196
aF7.126905357837677
aF8.596950307488441
aF-3.4
aF-4.1
aF8.906247033178806
aF-3.9
aF8.838372588157654
aI0
aI-3
aF-5.500000000000001
aF-4.2
aF-5.900000000000003
ag1
(g5
S'\xfe\x08\x86)m\x0e\x1e@'
p113
tp114
Rp115
aF-3.5
aF8.676676490902901
aF-4.9
aF8.409536117315293
aF-4.9
aF-3.5
aF9.07431464791298
aF-3.4
aF9.187064209580422
aF-6.000000000000003
aF-3.9
aF-3.5
aF-3.900000000000002
aF-6.000000000000003
aF9.080869140010327
aF9.43098283931613
aF-3.8
ag1
(g5
S'(\xe0\xda0D\x15\x1f@'
p116
tp117
Rp118
ag1
(g5
S'\x84\x90\xc0eM? @'
p119
tp120
Rp121
aF8.460472437739373
aF-6.300000000000002
aF9.3286246471107
aF-8.100000000000001
ag1
(g5
S'\xfa\xa7\xcb\r\xcdF @'
p122
tp123
Rp124
aI0
ag1
(g5
S'\x1e\xf7w\x01\x91n\x1c@'
p125
tp126
Rp127
aF-5.900000000000001
ag1
(g5
S'\x10\xae\xbb\xed\xd3\xc3\x15@'
p128
tp129
Rp130
aF-3.3000000000000016
aF8.937276877462864
aF9.436936354637146
aF8.32129237651825
aF8.80880819261074
ag1
(g5
S'\x1e\xae\x87\xefg\x19\x1b@'
p131
tp132
Rp133
aF9.46887366566807
aF8.408254778012633
ag1
(g5
S'\x82\xd3\x1d\xb4\xea\xbc\x1a@'
p134
tp135
Rp136
ag1
(g5
S'6\xb4\xac\x02\xad\xfc\x1f@'
p137
tp138
Rp139
aF-3.6
aF9.261932945251464
aF8.51015900373459
aF-3.3000000000000016
aF-3.6
aF8.754210390150547
aF-3.800000000000002
aF-3.1
aF-3.8
aF-3.2
aF7.260663378238678
aF8.813514557480811
aF9.379361592233181
aF-3.2
aF-4.1
aF9.172474026679993
aI-3
aF-3.4
aF-3.8
aF-3.4
aF-5.300000000000001
aF-3.6
ag1
(g5
S'\xb3B\xf44\x8bd!@'
p140
tp141
Rp142
aF-3.3000000000000016
aF9.464381466060876
aF-4.2
aF-5.300000000000001
aI-3
aF-3.6
aF8.428968822956085
aF-3.4
aF-4.800000000000001
aF8.414404341578484
aF-3.4
aF-4.2
aF8.735090106725693
aF-4.3
aF-3.4
aF-3.600000000000002
aF8.223712942004203
aF8.973575139790773
ag1
(g5
S'\xbb\x89\xf6\x1b\x07^\x1e@'
p143
tp144
Rp145
aF-3.2
ag1
(g5
S'\x86\xb6\xd7\xee\x9e\xe4 @'
p146
tp147
Rp148
aF-3.6
aF-4.0
aF8.985087209846824
ag1
(g5
S'>\x83\xcf\x9c\xe7;\x1c@'
p149
tp150
Rp151
ag1
(g5
S'\xf0mI\x04\x1b\xb2\x1c@'
p152
tp153
Rp154
aF-4.700000000000002
aF-3.2
ag1
(g5
S'C\xdb\xf0\xa8\t|\x1e@'
p155
tp156
Rp157
aF-4.8
aF-4.9
aF-3.7
aF8.169549937173723
aI0
aF-5.700000000000002
aF-3.9
aF-3.4
aF-4.7
aF-3.0000000000000018
aF-4.0
aF-4.9
aF8.885042384266853
aF-4.300000000000001
ag1
(g5
S'\xd2)\xfa\x91\xd2\xb8\x18@'
p158
tp159
Rp160
aF-5.400000000000002
ag1
(g5
S'\xd5R\xde\xab\xeed\x1a@'
p161
tp162
Rp163
ag1
(g5
S'\xb6\xa0\xb9L\x96\xc3\x1d@'
p164
tp165
Rp166
aF9.543457665294408
aF-3.9
ag1
(g5
S'F\xa6\x9a!\xe7@\x17@'
p167
tp168
Rp169
aF8.555904757976531
aF9.043714588880539
aF-3.8
aF-3.1
aF-4.400000000000001
aF-4.5
aF7.6353393405675885
aF9.361613649874926
aF-7.500000000000002
aF9.015482945740223
aF9.262855506688357
aF8.36528368294239
aF-3.4
aI0
ag1
(g5
S'\xa4SK\x16\xbd`\x1d@'
p170
tp171
Rp172
aF8.174711021408438
aF6.794053266011177
aF8.18032539486885
aF-4.200000000000002
aF-3.6
aF-5.100000000000002
aF-5.6
ag1
(g5
S'D\xdd\xa7\xdc\x8c\xeb\x1f@'
p173
tp174
Rp175
aF-3.3
aI-3
ag1
(g5
S"T\xf4y'\xe7S\x16@"
p176
tp177
Rp178
aF8.95361773893237
aF8.23286862373352
aF-3.2
aF8.652671344578266
aF-3.3
aF-7.100000000000001
aF9.253810254484415
aF9.04579111970961
aF-3.6
aF-5.100000000000001
aF-4.1
aF-3.7
aF-3.4
aF-3.9
ag1
(g5
S'>=\xae\xea1\xc2\x1f@'
p179
tp180
Rp181
aF8.617728441953659
ag1
(g5
S'\x80\xf5\x0b\x9e@\x12\x1e@'
p182
tp183
Rp184
aF8.960189095139503
ag1
(g5
S'm\xf6\x06\xd8t\xce\x1e@'
p185
tp186
Rp187
ag1
(g5
S'>)\xfd\xf2\xaa\xfa\x1b@'
p188
tp189
Rp190
ag1
(g5
S'A^\x13\xc7]8\x16@'
p191
tp192
Rp193
aF8.770953141152859
aF8.854326892644167
aF-3.9
aF-4.9
aF8.569598740339279
aF8.287796305213124
aF-4.5
aI-3
aF-3.3
ag1
(g5
S'Q\x1b\xf8\x13-\t @'
p194
tp195
Rp196
aI-3
ag1
(g5
S'\xde\xde\xfb\xdc\xff0 @'
p197
tp198
Rp199
ag1
(g5
S'\xf9\xae\x98\x15s\x90\x1b@'
p200
tp201
Rp202
aF9.034170310199261
aF-4.2
aF-3.9
aI-3
aF7.107032531499863
ag1
(g5
S'\xecw#v%\xe9\x1f@'
p203
tp204
Rp205
aF8.347664445638657
aF-4.6000000000000005
aF7.979053367674351
aF7.926595240831375
aF8.952511517703533
ag1
(g5
S'\x80{/\x80\x8fu\x16@'
p206
tp207
Rp208
aF5.2021076530218116
ag1
(g5
S'\x8e_\xcbv\xa1\xa9\x16@'
p209
tp210
Rp211
ag1
(g5
S'\xee\x16\xc0\xf19\xe1\x1b@'
p212
tp213
Rp214
aF-3.4
aF8.345761057734489
aF7.587674003839493
aF8.075017262995242
aF6.1996550649520925
ag1
(g5
S'8N\x17\x04\x8c\x1c @'
p215
tp216
Rp217
aF7.989812563359737
aF-3.6
aI0
aF9.08485954552889
aF8.460464051365852
aF8.48006742745638
aF7.503317256271838
aF8.350615514814853
aF8.243716587498785
aF8.341794300079346
ag1
(g5
S'\xcfd\x15\x02k\xae\x10@'
p218
tp219
Rp220
aF8.373912972211837
aF9.35637970417738
aF8.631417101621627
aF-5.000000000000003
aF8.058835668861866
aF8.6168023198843
aF7.337483108043671
aF-3.4
aF-3.2
aF8.240536260604859
aF9.456795083731413
aF-5.100000000000001
aF-3.6
ag1
(g5
S'\xa9$;U?\xb2\x1f@'
p221
tp222
Rp223
aF-5.600000000000001
aF-4.0
aF8.7407186165452
aF8.180301918834449
ag1
(g5
S'\x1c\xa8\xdbsC\xaf\x1a@'
p224
tp225
Rp226
ag1
(g5
S'\xceFA\x87`.\x1d@'
p227
tp228
Rp229
ag1
(g5
S'H\xb0\xff\xb5\xb9\xf8\x18@'
p230
tp231
Rp232
aI0
aF9.297149741859176
aF8.269845522940159
aF9.50900263376534
aF7.484986042976379
aF8.034885662794114
aF-4.4
aF-3.6
ag1
(g5
S'u\xf3X\xc0\r\xee @'
p233
tp234
Rp235
aF9.046677735447883
aF-5.600000000000002
aF8.595452427864075
ag1
(g5
S'\x08g\xa3M\xa2\xa4\x19@'
p236
tp237
Rp238
ag1
(g5
S'\x16g\\\xb5u:\x19@'
p239
tp240
Rp241
aF8.246067946404219
aI-3
aF-4.6000000000000005
ag1
(g5
S']s\xf1e\xcc}\x1e@'
p242
tp243
Rp244
aF7.660226669907569
aF5.965992714464663
aF8.721457504853607
aF9.119580507278442
ag1
(g5
S'Q_\xa5@5\x91\x1b@'
p245
tp246
Rp247
aF6.692539405822753
aF-3.600000000000002
ag1
(g5
S'\x06\x04e$\x12\xfd\x1e@'
p248
tp249
Rp250
ag1
(g5
S'YI\x956]\x1a\x1b@'
p251
tp252
Rp253
aF8.88024140810594
aF9.182213919982313
aF-4.4
aF-3.9
ag1
(g5
S'\xcf\x11;n\x807 @'
p254
tp255
Rp256
aF7.872083876281977
aF-4.5
aF7.532879620790482
aF4.156583398580552
aF8.495339673757552
ag1
(g5
S'"\x8dV\x92b\xea @'
p257
tp258
Rp259
ag1
(g5
S'\xa8:\x1ec\x8d@\x1d@'
p260
tp261
Rp262
aF9.477737142704427
aF8.933507692813873
a.