(lp0
F-5.500000000000001
aF-3.7
acnumpy.core.multiarray
scalar
p1
(cnumpy
dtype
p2
(S'f8'
p3
I0
I1
tp4
Rp5
(I3
S'<'
p6
NNNI-1
I-1
I0
tp7
bS'nT\xd1\x80T\xa0\x1a@'
p8
tp9
Rp10
aF-4.3
aF2.3213773697614766
aF-4.3
aF5.428983521461486
aF-4.2
aF4.145922514423733
aF-5.500000000000001
aF-5.4
aF-4.6000000000000005
aF-3.7
aF7.389555475115776
aF-4.4
aF8.089540046453475
aF-4.4
aF-4.9
aF-6.300000000000002
ag1
(g5
S'qw\xea\xb8\xb6\xbd\x1c@'
p11
tp12
Rp13
aF-3.4
aF-4.0
aF-3.6
aF-5.0
aF4.983446955680847
aF-3.1
ag1
(g5
S'S\xb1}\xf5\x07\xa0\x1d@'
p14
tp15
Rp16
ag1
(g5
S'm\xac\xe7\x17\x01\x87\x1f@'
p17
tp18
Rp19
aF-5.500000000000001
aF-9.699999999999992
aF-8.099999999999998
aF-5.4
aF-6.700000000000002
aF-3.9
aF-3.5000000000000018
aF-4.800000000000001
aF-6.199999999999994
aF-3.3
aF7.3660812109708775
aF-4.9
aF-4.4
aF6.474749663472174
aF-3.5
aF-3.1
aF8.6318804576993
aF-7.100000000000001
ag1
(g5
S',\x82\xf5hZ\xc9 @'
p20
tp21
Rp22
aF5.657645440101623
aF-4.9
aF7.366552373766899
aF-3.4
aI-3
aF8.702162420749664
aF-4.1
aF-3.8
aF-4.6000000000000005
aF-3.6
aF-3.9
ag1
(g5
S'\xf4\xcfr\x8a~\x81\x1b@'
p23
tp24
Rp25
aF7.439928722381591
aF-2.1000000000000005
ag1
(g5
S'\x8bx\xc8\xb0\x86\xdf\x1b@'
p26
tp27
Rp28
ag1
(g5
S'Y#\xa5E\xeb\x9f\x1c@'
p29
tp30
Rp31
ag1
(g5
S'\x06\x9b\x99\x07\x9f\x81\x1f@'
p32
tp33
Rp34
aF-3.5
aF5.094792258739471
aF-2.0000000000000004
aI-3
aF-3.2000000000000015
aF-3.7
aF-3.2
aF-3.2
aF9.170083652436734
aF-4.2
aF-6.000000000000002
ag1
(g5
S'\xf3\x9b\x0b-\x9d\xf0 @'
p35
tp36
Rp37
ag1
(g5
S'.\xda\xfb<:\xa2\x18@'
p38
tp39
Rp40
ag1
(g5
S'\x9a\xe2\xcbt\xa3; @'
p41
tp42
Rp43
aF-4.1
aF-1.8000000000000005
aF-4.800000000000001
aF-3.4
aF8.116619852185249
aF7.235082489624618
ag1
(g5
S'D\xecG@\xa8\x94\x1b@'
p44
tp45
Rp46
aF-1.8000000000000005
aF-5.5821028947830165
aF-3.6
ag1
(g5
S'\xcfI\xc0L&\x08\x1d@'
p47
tp48
Rp49
aF-3.6
aF-4.2
aF-3.2
aF-3.3
aF-4.2
aF-5.1000000000000005
aF-3.8
aI-3
aF-3.3
aF-4.9
aF-3.7
aI-3
aF-5.0
ag1
(g5
S'\x92\xc1\x87\xce\x89g\x1a@'
p50
tp51
Rp52
aF-3.9
aF-3.6
aF-4.9
aI-3
ag1
(g5
S'J\x13g\xc5{\xe8\x1a@'
p53
tp54
Rp55
ag1
(g5
S'\x87 \xf6\x8c\xbdm\x1d@'
p56
tp57
Rp58
aF-3.4
aF-3.3
aF7.903873163461685
aF-5.200000000000001
aF-3.8
aF8.641141495108604
aF-4.3
aF8.87634563818574
aF-4.1
aF8.841488023847342
aF-4.3
aF-4.5
aF-2.2000000000000006
ag1
(g5
S'\x1c\x8b\x0e^\x90\x97 @'
p59
tp60
Rp61
aF-3.5
aF-3.9
ag1
(g5
S'\xfa\xf6\x08\xb9\x10n\x1e@'
p62
tp63
Rp64
aF8.52641174197197
ag1
(g5
S'\xf3\xc9\x0b#\x9c]\x1c@'
p65
tp66
Rp67
aF-3.2
aF-5.0
aF-3.1
aF-3.8
aF-3.4
ag1
(g5
S'\xe3@\x92\x1f\xfb>\x1f@'
p68
tp69
Rp70
aF-4.0
aF7.2245688915252675
ag1
(g5
S'\xac\xc9w\x8e\xf5W\x1d@'
p71
tp72
Rp73
aF-3.8
aF-3.1
aF-4.1
ag1
(g5
S'\x12g\xf6\xd3\xa3E\x1f@'
p74
tp75
Rp76
aF-3.4
aF-4.4
aF-3.5
aF-4.800000000000001
aF-3.9
aF-4.7
aF-5.900000000000001
aF6.751221153140067
aF-3.4
aF-4.5
aF-1.7000000000000004
aF-3.7
aF-4.3
aF-4.3
aF8.032093399763108
aF-4.800000000000001
aF-3.5
aF-2.0000000000000004
aF-6.100000000000001
aF-4.800000000000001
aF-4.7
aF-3.2000000000000015
aF-3.2000000000000015
ag1
(g5
S'\xac\x0e}\xc6\x03\xa3 @'
p77
tp78
Rp79
ag1
(g5
S'n\xf2G^"T @'
p80
tp81
Rp82
aF-4.7
ag1
(g5
S'w\xf6K\x1d\x89\xc5 @'
p83
tp84
Rp85
aF-3.8
aF-3.4
aF-4.1
aF8.821568336337805
aF-4.9
aF-5.300000000000001
aF-3.4000000000000017
aF-3.9
ag1
(g5
S'\xa5\xe7%\xa4\xb7\x95\x1b@'
p86
tp87
Rp88
ag1
(g5
S'\x1f\x9bW`\x84\x16 @'
p89
tp90
Rp91
aF-4.4
aF8.28849175348878
ag1
(g5
S'.\x8c\xfc\x8b\xb8\xf8 @'
p92
tp93
Rp94
aF-4.6000000000000005
aF-4.2
aF-3.6
aF-3.7
aF-1.9000000000000006
aF-3.1
ag1
(g5
S'\xc3\xed\xd4g\x0fw\x1f@'
p95
tp96
Rp97
aF9.056401033699512
aF-4.800000000000001
aF-4.5
aF8.132406860589981
aF7.831951363384723
aF8.53605215549469
aF-3.9
aF-4.0
aF-3.6
aF8.793333566188812
ag1
(g5
S'\x8c\x02\xd7\xc9\xc9\x8b\x1f@'
p98
tp99
Rp100
ag1
(g5
S'\xeak\xb5>\xd1\xbc\x1d@'
p101
tp102
Rp103
aF-3.4
aF-3.6
aF-4.7
aF-5.500000000000001
aF-5.300000000000001
aF-3.4
aF9.351636944711208
aF-3.7
aF-2.2000000000000006
ag1
(g5
S'\x15\xfa \xd8\xe7\xb2 @'
p104
tp105
Rp106
ag1
(g5
S'\x15?b\x12\xc4Z\x1c@'
p107
tp108
Rp109
ag1
(g5
S'P\xbet!\xf4\xdb\x1f@'
p110
tp111
Rp112
aF2.9143252134323117
aF-3.7
ag1
(g5
S'G\xa5Zd\xf6v!@'
p113
tp114
Rp115
aF-3.1
aF-3.1
aF-4.1
aF-4.5
aF-3.4
aF-4.4
aF7.798539143800736
aF-3.4
ag1
(g5
S'\x80\x1a\xab\x8a\xf8Q @'
p116
tp117
Rp118
aF-3.9
aF-4.0
aF-2.3000000000000007
aF-4.4
aF-3.7
aF-3.2
aF-4.9
aF-4.6000000000000005
ag1
(g5
S':\xd2d*\xf7e\x1e@'
p119
tp120
Rp121
aF-3.6
ag1
(g5
S'q\xe2%\xaa\x8b\x87\x1d@'
p122
tp123
Rp124
ag1
(g5
S'Jx\x82)\xb3\xb2 @'
p125
tp126
Rp127
aF7.611654809117317
aF-6.400000000000002
aF-5.300000000000001
ag1
(g5
S'h\xf5#\xe9\x19\xeb @'
p128
tp129
Rp130
aF-6.600000000000001
aF-3.7
aF8.806988138332963
aF-3.8
aF-3.7
aF-3.4
aF8.648304295539855
aF-3.4000000000000017
aF-3.5
aF-4.3
aF-4.4
aF-2.2000000000000006
aF8.92035686597228
aF-3.6
aF9.278942933958024
aF-4.100000000000001
aF-4.2
aF-3.3
ag1
(g5
S'n\xee\xbf\xa1\xe3\xe6\x1c@'
p131
tp132
Rp133
aF9.49506456463132
aF-4.800000000000001
aF8.45934279859066
aF8.931898647546769
ag1
(g5
S'\xa1\xbd\xfd89*\x1a@'
p134
tp135
Rp136
aF-3.5
aF-6.000000000000002
aF-4.1
aF-5.600000000000001
ag1
(g5
S'\n\x15\xae_yP\x1c@'
p137
tp138
Rp139
ag1
(g5
S'\xec\x82\xf0\x9cMM\x1c@'
p140
tp141
Rp142
aF-3.4
aF-3.1000000000000014
ag1
(g5
S'\xd3\xd3\x9263> @'
p143
tp144
Rp145
ag1
(g5
S'l\xb0\xb0T\x08\xb5\x1b@'
p146
tp147
Rp148
aF-3.3
aF-3.2000000000000015
aF-4.1
aF-3.3
aF8.44583002924919
ag1
(g5
S'\xb4\rxW\x068 @'
p149
tp150
Rp151
aF8.498767885292182
aF8.504235184192657
aF-3.8
aF-4.9
aF-3.1
aF7.83059298992157
aF-3.6
aF-3.3
aF7.785785701870918
aF8.542587453126908
aF-3.5
aF-4.1
aF-4.5
aF-3.7
aF-4.3
aF-4.1
aF-4.0
aF4.490068769454956
aF6.3740304589271535
aF-3.5000000000000018
aF6.089014971256255
aF6.115303371846673
aF7.177795005775987
aF8.61764922067523
aF-4.3
aF-4.4
aF8.424645546078683
aF-4.6000000000000005
aF-3.6
aF-3.5
aF-3.7
aF-4.3
aF-4.200000000000001
aF-4.4
aF-6.100000000000001
aF-4.7
aF-5.800000000000001
aI-3
aF7.82614187002182
aF-4.3
aF-4.2
aF-4.5
aF-4.5
ag1
(g5
S'S\x19\xc6\xd49x\x1c@'
p152
tp153
Rp154
ag1
(g5
S'\x06\xd2*d\xf6\xda\x1f@'
p155
tp156
Rp157
aF-3.7
aF-3.2
ag1
(g5
S'\\u\rB\xa6\x8d @'
p158
tp159
Rp160
aF6.447983980178832
ag1
(g5
S'\xdbP\x86-\x01\x0f\x1e@'
p161
tp162
Rp163
ag1
(g5
S'\x8bdA\xdd=\xdf\x1d@'
p164
tp165
Rp166
ag1
(g5
S'*\x8fR\xb4\xe8\xdd\x1c@'
p167
tp168
Rp169
aI-3
aF8.565099425986409
ag1
(g5
S'\xe5\xf7\xa7\xac\x14\xf7\x1e@'
p170
tp171
Rp172
aF-3.1
aF-3.7
ag1
(g5
S'*\xb3Z\xa5\xe8\x86\x1e@'
p173
tp174
Rp175
aF-4.4
aF-3.8
aF-3.3
aF7.408118003606796
aF6.889052987098694
aF-5.1000000000000005
aF-3.6
aF-3.5
aF7.5883103698492045
aF-4.9
aF-5.1000000000000005
aF-4.4
aF-4.200000000000001
aF-3.1
aF-4.3
aF-4.3
aF-5.1000000000000005
aF7.407317860424518
aF-4.100000000000001
aF7.156984224170445
aF8.072757196426391
aF-4.100000000000001
aF-6.400000000000002
aF-3.7
aF-3.7
aF7.425428929924964
aF7.58071911484003
aF7.147752463072537
aF7.6804542735218995
aF-3.3
aF7.274346548318862
aF-4.5
aF-3.6
ag1
(g5
S'D:\xe2\x925\xfd\x1a@'
p176
tp177
Rp178
aF-4.0
aF-4.4
aF8.8513468015939
aF-5.200000000000001
aF7.684420621395111
aF-2.500000000000001
ag1
(g5
S'\xe1\x17\xdbb\xd2\xbd\x1a@'
p179
tp180
Rp181
aF-5.300000000000001
aF-3.6
aF-2.500000000000001
aF8.33825542628765
ag1
(g5
S'\xb5:\x97(\xab\xf0\x1b@'
p182
tp183
Rp184
aF7.168701326847076
aF4.615054178237914
aF-3.8
ag1
(g5
S'\xb8\x1c\x19\xf0\xc4\x0b @'
p185
tp186
Rp187
ag1
(g5
S'|\xbe@\x84\x07\xa1\x1e@'
p188
tp189
Rp190
aF-3.3
aF-4.4
aF-4.100000000000001
aF-4.300000000000001
aF6.2058455407619455
ag1
(g5
S'Sh%Y^\x99\x1d@'
p191
tp192
Rp193
aF-3.5
aF8.234950476884842
aF6.955620270222424
ag1
(g5
S'\xde\x03\xc5\x86\xa4\xff\x1a@'
p194
tp195
Rp196
ag1
(g5
S'Y>\xec\xae\xf0\x96\x1c@'
p197
tp198
Rp199
a.